TN:
SF:/home/discorre/vscodeproj/thierdLaba/benchmark.cpp
FN:1008,1019,_ZL26BM_MyDoublyLinkedList_LGETRN9benchmark5StateE
FN:1023,1034,_ZL27BM_MyDoublyLinkedList_PrintRN9benchmark5StateE
FN:1038,1049,_ZL29BM_MyDoublyLinkedList_GetSizeRN9benchmark5StateE
FN:1053,1065,_ZL34BM_MyDoublyLinkedList_SaveLoadFileRN9benchmark5StateE
FN:1071,1079,_ZL10BM_TINSERTRN9benchmark5StateE
FN:1083,1092,_ZL7BM_TDELRN9benchmark5StateE
FN:1096,1105,_ZL7BM_TGETRN9benchmark5StateE
FN:1109,1120,_ZL8BM_PRINTRN9benchmark5StateE
FN:1124,1137,_ZL9BM_ISFULLRN9benchmark5StateE
FN:1141,1151,_ZL13BM_SAVETOFILERN9benchmark5StateE
FN:1155,1165,_ZL15BM_LOADFROMFILERN9benchmark5StateE
FN:1168,1179,_ZL12BM_PRINTROOTRN9benchmark5StateE
FN:1182,1193,_ZL10BM_GETROOTRN9benchmark5StateE
FN:119,128,_ZL21BM_MyArray_SaveToFileRN9benchmark5StateE
FN:1197,1208,_ZL15BM_TDELOneChildRN9benchmark5StateE
FN:1212,1224,_ZL18BM_TDELTwoChildrenRN9benchmark5StateE
FN:1228,1241,_ZL22BM_SaveToBinaryFileFBTRN9benchmark5StateE
FN:1244,1250,_ZL24BM_LoadFromBinaryFileFBTRN9benchmark5StateE
FN:1258,1258,main
FN:132,141,_ZL23BM_MyArray_LoadFromFileRN9benchmark5StateE
FN:145,154,_ZL16BM_MyArray_ClearRN9benchmark5StateE
FN:158,168,_ZL16BM_MyArray_PrintRN9benchmark5StateE
FN:16,18,_Z14suppressOutputv
FN:171,186,_ZL33BM_MyArray_SaveLoadFromBinaryFileRN9benchmark5StateE
FN:193,200,_ZL17BM_HashMap_InsertRN9benchmark5StateE
FN:20,22,_Z13restoreOutputv
FN:203,214,_ZL14BM_HashMap_GetRN9benchmark5StateE
FN:217,229,_ZL17BM_HashMap_DeleteRN9benchmark5StateE
FN:232,240,_ZL21BM_HashMap_SaveToFileRN9benchmark5StateE
FN:243,253,_ZL23BM_HashMap_LoadFromFileRN9benchmark5StateE
FN:25,38,_Z20generateRandomStringB5cxx11m
FN:257,266,_ZL21BM_SaveToBinaryFileHMRN9benchmark5StateE
FN:270,281,_ZL23BM_LoadFromBinaryFileHMRN9benchmark5StateE
FN:285,300,_ZL24BM_MyHashMap_Print_SmallRN9benchmark5StateE
FN:306,315,_ZL18BM_MyVector_InsertRN9benchmark5StateE
FN:319,329,_ZL17BM_MyVector_EraseRN9benchmark5StateE
FN:333,342,_ZL15BM_MyVector_GetRN9benchmark5StateE
FN:346,355,_ZL15BM_MyVector_SetRN9benchmark5StateE
FN:359,370,_ZL17BM_MyVector_PrintRN9benchmark5StateE
FN:374,385,_ZL16BM_MyVector_SizeRN9benchmark5StateE
FN:389,400,_ZL20BM_MyVector_ConstGetRN9benchmark5StateE
FN:404,415,_ZL19BM_MyVector_IterateRN9benchmark5StateE
FN:419,433,_ZL24BM_MyVector_ConstIterateRN9benchmark5StateE
FN:42,49,_ZL18BM_MyList_PushBackRN9benchmark5StateE
FN:420,426,_ZZL24BM_MyVector_ConstIterateRN9benchmark5StateEENKUlvE_clEv
FN:437,448,_ZL31BM_MyVector_ModifyWithIteratorsRN9benchmark5StateE
FN:452,463,_ZL19BM_MyVector_ForEachRN9benchmark5StateE
FN:467,481,_ZL21BM_LoadFromBinaryFileRN9benchmark5StateE
FN:487,493,_ZL15BM_Queue_Q_PUSHRN9benchmark5StateE
FN:497,507,_ZL14BM_Queue_Q_DELRN9benchmark5StateE
FN:511,522,_ZL14BM_Queue_Q_POPRN9benchmark5StateE
FN:52,62,_ZL14BM_MyList_FindRN9benchmark5StateE
FN:526,534,_ZL16BM_Queue_getSizeRN9benchmark5StateE
FN:538,546,_ZL19BM_Queue_saveToFileRN9benchmark5StateE
FN:550,559,_ZL21BM_Queue_loadFromFileRN9benchmark5StateE
FN:563,571,_ZL14BM_Queue_clearRN9benchmark5StateE
FN:575,585,_ZL14BM_Queue_printRN9benchmark5StateE
FN:589,600,_ZL25BM_SaveToBinaryFile_QueueRN9benchmark5StateE
FN:604,616,_ZL27BM_LoadFromBinaryFile_QueueRN9benchmark5StateE
FN:622,652,_ZL24BM_MyStack_AllOperationsRN9benchmark5StateE
FN:65,75,_ZL16BM_MyList_RemoveRN9benchmark5StateE
FN:657,667,_ZL21BM_MyStack_SaveToFileRN9benchmark5StateE
FN:671,678,_ZL23BM_MyStack_LoadFromFileRN9benchmark5StateE
FN:682,695,_ZL17BM_SerializeStackRN9benchmark5StateE
FN:699,709,_ZL19BM_DeserializeStackRN9benchmark5StateE
FN:713,727,_ZL20BM_MyStack_PrintSizeRN9benchmark5StateE
FN:734,744,_ZL31BM_MySinglyLinkedList_LPUSHTAILRN9benchmark5StateE
FN:747,760,_ZL38BM_MySinglyLinkedList_SaveLoadToBinaryRN9benchmark5StateE
FN:764,777,_ZL30BM_MySinglyLinkedList_LDELHEADRN9benchmark5StateE
FN:781,794,_ZL30BM_MySinglyLinkedList_LDELTAILRN9benchmark5StateE
FN:798,813,_ZL26BM_MySinglyLinkedList_LDELRN9benchmark5StateE
FN:80,114,_ZL19BM_MyArray_CombinedRN9benchmark5StateE
FN:817,828,_ZL30BM_MySinglyLinkedList_ContainsRN9benchmark5StateE
FN:832,843,_ZL26BM_MySinglyLinkedList_LGETRN9benchmark5StateE
FN:847,858,_ZL27BM_MySinglyLinkedList_PrintRN9benchmark5StateE
FN:862,871,_ZL29BM_MySinglyLinkedList_GetSizeRN9benchmark5StateE
FN:875,885,_ZL34BM_MySinglyLinkedList_SaveLoadFileRN9benchmark5StateE
FN:889,897,_ZL16BM_SerializationRN9benchmark5StateE
FN:901,907,_ZL18BM_DeserializationRN9benchmark5StateE
FN:913,923,_ZL31BM_MyDoublyLinkedList_LPUSHHEADRN9benchmark5StateE
FN:927,937,_ZL31BM_MyDoublyLinkedList_LPUSHTAILRN9benchmark5StateE
FN:941,954,_ZL30BM_MyDoublyLinkedList_LDELHEADRN9benchmark5StateE
FN:958,971,_ZL30BM_MyDoublyLinkedList_LDELTAILRN9benchmark5StateE
FN:975,989,_ZL26BM_MyDoublyLinkedList_LDELRN9benchmark5StateE
FN:993,1004,_ZL30BM_MyDoublyLinkedList_ContainsRN9benchmark5StateE
FNDA:6,_ZL26BM_MyDoublyLinkedList_LGETRN9benchmark5StateE
FNDA:5,_ZL27BM_MyDoublyLinkedList_PrintRN9benchmark5StateE
FNDA:10,_ZL29BM_MyDoublyLinkedList_GetSizeRN9benchmark5StateE
FNDA:1,_ZL34BM_MyDoublyLinkedList_SaveLoadFileRN9benchmark5StateE
FNDA:2,_ZL10BM_TINSERTRN9benchmark5StateE
FNDA:5,_ZL7BM_TDELRN9benchmark5StateE
FNDA:5,_ZL7BM_TGETRN9benchmark5StateE
FNDA:5,_ZL8BM_PRINTRN9benchmark5StateE
FNDA:5,_ZL9BM_ISFULLRN9benchmark5StateE
FNDA:4,_ZL13BM_SAVETOFILERN9benchmark5StateE
FNDA:4,_ZL15BM_LOADFROMFILERN9benchmark5StateE
FNDA:9,_ZL12BM_PRINTROOTRN9benchmark5StateE
FNDA:10,_ZL10BM_GETROOTRN9benchmark5StateE
FNDA:4,_ZL21BM_MyArray_SaveToFileRN9benchmark5StateE
FNDA:8,_ZL15BM_TDELOneChildRN9benchmark5StateE
FNDA:8,_ZL18BM_TDELTwoChildrenRN9benchmark5StateE
FNDA:6,_ZL22BM_SaveToBinaryFileFBTRN9benchmark5StateE
FNDA:7,_ZL24BM_LoadFromBinaryFileFBTRN9benchmark5StateE
FNDA:1,main
FNDA:5,_ZL23BM_MyArray_LoadFromFileRN9benchmark5StateE
FNDA:10,_ZL16BM_MyArray_ClearRN9benchmark5StateE
FNDA:5,_ZL16BM_MyArray_PrintRN9benchmark5StateE
FNDA:0,_Z14suppressOutputv
FNDA:5,_ZL33BM_MyArray_SaveLoadFromBinaryFileRN9benchmark5StateE
FNDA:3,_ZL17BM_HashMap_InsertRN9benchmark5StateE
FNDA:0,_Z13restoreOutputv
FNDA:3,_ZL14BM_HashMap_GetRN9benchmark5StateE
FNDA:4,_ZL17BM_HashMap_DeleteRN9benchmark5StateE
FNDA:4,_ZL21BM_HashMap_SaveToFileRN9benchmark5StateE
FNDA:4,_ZL23BM_HashMap_LoadFromFileRN9benchmark5StateE
FNDA:50000,_Z20generateRandomStringB5cxx11m
FNDA:4,_ZL21BM_SaveToBinaryFileHMRN9benchmark5StateE
FNDA:4,_ZL23BM_LoadFromBinaryFileHMRN9benchmark5StateE
FNDA:6,_ZL24BM_MyHashMap_Print_SmallRN9benchmark5StateE
FNDA:7,_ZL18BM_MyVector_InsertRN9benchmark5StateE
FNDA:8,_ZL17BM_MyVector_EraseRN9benchmark5StateE
FNDA:10,_ZL15BM_MyVector_GetRN9benchmark5StateE
FNDA:10,_ZL15BM_MyVector_SetRN9benchmark5StateE
FNDA:5,_ZL17BM_MyVector_PrintRN9benchmark5StateE
FNDA:10,_ZL16BM_MyVector_SizeRN9benchmark5StateE
FNDA:10,_ZL20BM_MyVector_ConstGetRN9benchmark5StateE
FNDA:6,_ZL19BM_MyVector_IterateRN9benchmark5StateE
FNDA:4,_ZL24BM_MyVector_ConstIterateRN9benchmark5StateE
FNDA:9,_ZL18BM_MyList_PushBackRN9benchmark5StateE
FNDA:4,_ZZL24BM_MyVector_ConstIterateRN9benchmark5StateEENKUlvE_clEv
FNDA:7,_ZL31BM_MyVector_ModifyWithIteratorsRN9benchmark5StateE
FNDA:6,_ZL19BM_MyVector_ForEachRN9benchmark5StateE
FNDA:5,_ZL21BM_LoadFromBinaryFileRN9benchmark5StateE
FNDA:9,_ZL15BM_Queue_Q_PUSHRN9benchmark5StateE
FNDA:9,_ZL14BM_Queue_Q_DELRN9benchmark5StateE
FNDA:9,_ZL14BM_Queue_Q_POPRN9benchmark5StateE
FNDA:10,_ZL14BM_MyList_FindRN9benchmark5StateE
FNDA:10,_ZL16BM_Queue_getSizeRN9benchmark5StateE
FNDA:4,_ZL19BM_Queue_saveToFileRN9benchmark5StateE
FNDA:4,_ZL21BM_Queue_loadFromFileRN9benchmark5StateE
FNDA:10,_ZL14BM_Queue_clearRN9benchmark5StateE
FNDA:5,_ZL14BM_Queue_printRN9benchmark5StateE
FNDA:5,_ZL25BM_SaveToBinaryFile_QueueRN9benchmark5StateE
FNDA:5,_ZL27BM_LoadFromBinaryFile_QueueRN9benchmark5StateE
FNDA:8,_ZL24BM_MyStack_AllOperationsRN9benchmark5StateE
FNDA:6,_ZL16BM_MyList_RemoveRN9benchmark5StateE
FNDA:4,_ZL21BM_MyStack_SaveToFileRN9benchmark5StateE
FNDA:5,_ZL23BM_MyStack_LoadFromFileRN9benchmark5StateE
FNDA:4,_ZL17BM_SerializeStackRN9benchmark5StateE
FNDA:5,_ZL19BM_DeserializeStackRN9benchmark5StateE
FNDA:5,_ZL20BM_MyStack_PrintSizeRN9benchmark5StateE
FNDA:5,_ZL31BM_MySinglyLinkedList_LPUSHTAILRN9benchmark5StateE
FNDA:4,_ZL38BM_MySinglyLinkedList_SaveLoadToBinaryRN9benchmark5StateE
FNDA:10,_ZL30BM_MySinglyLinkedList_LDELHEADRN9benchmark5StateE
FNDA:17,_ZL30BM_MySinglyLinkedList_LDELTAILRN9benchmark5StateE
FNDA:2,_ZL26BM_MySinglyLinkedList_LDELRN9benchmark5StateE
FNDA:7,_ZL19BM_MyArray_CombinedRN9benchmark5StateE
FNDA:6,_ZL30BM_MySinglyLinkedList_ContainsRN9benchmark5StateE
FNDA:6,_ZL26BM_MySinglyLinkedList_LGETRN9benchmark5StateE
FNDA:5,_ZL27BM_MySinglyLinkedList_PrintRN9benchmark5StateE
FNDA:10,_ZL29BM_MySinglyLinkedList_GetSizeRN9benchmark5StateE
FNDA:4,_ZL34BM_MySinglyLinkedList_SaveLoadFileRN9benchmark5StateE
FNDA:4,_ZL16BM_SerializationRN9benchmark5StateE
FNDA:4,_ZL18BM_DeserializationRN9benchmark5StateE
FNDA:5,_ZL31BM_MyDoublyLinkedList_LPUSHHEADRN9benchmark5StateE
FNDA:5,_ZL31BM_MyDoublyLinkedList_LPUSHTAILRN9benchmark5StateE
FNDA:10,_ZL30BM_MyDoublyLinkedList_LDELHEADRN9benchmark5StateE
FNDA:10,_ZL30BM_MyDoublyLinkedList_LDELTAILRN9benchmark5StateE
FNDA:2,_ZL26BM_MyDoublyLinkedList_LDELRN9benchmark5StateE
FNDA:5,_ZL30BM_MyDoublyLinkedList_ContainsRN9benchmark5StateE
FNF:85
FNH:83
DA:16,211
DA:17,0
DA:18,205
DA:20,211
DA:21,0
DA:22,205
DA:25,50000
DA:26,50000
DA:30,50002
DA:31,50000
DA:33,50000
DA:34,550000
DA:35,500000
DA:37,50000
DA:42,9
DA:43,9
DA:45,66588313
DA:46,33294143
DA:49,9
DA:52,10
DA:53,10
DA:54,100010
DA:55,100000
DA:57,1111211141
DA:58,1111111111
DA:59,1111111111
DA:62,10
DA:65,6
DA:66,6
DA:67,60006
DA:68,60000
DA:70,124464
DA:71,32226
DA:72,32226
DA:75,6
DA:80,7
DA:81,7
DA:83,7
DA:85,70007
DA:86,70000
DA:89,348544
DA:91,348530
DA:94,348530
DA:97,348530
DA:100,348530
DA:103,348530
DA:104,348530
DA:105,348530
DA:108,348530
DA:112,7
DA:113,7
DA:114,7
DA:119,4
DA:120,4
DA:121,40004
DA:122,40000
DA:124,1465
DA:125,2906
DA:128,4
DA:132,5
DA:133,5
DA:134,50005
DA:135,50000
DA:137,5
DA:138,2012
DA:139,3994
DA:141,5
DA:145,10
DA:146,10
DA:147,100010
DA:148,100000
DA:150,1111111141
DA:151,1111111111
DA:154,10
DA:158,5
DA:159,5
DA:160,5
DA:161,50005
DA:162,50000
DA:164,6617
DA:165,6607
DA:167,5
DA:168,5
DA:171,5
DA:172,5
DA:173,5
DA:174,50005
DA:175,150000
DA:177,5
DA:178,5
DA:179,3032
DA:181,6044
DA:184,5
DA:185,5
DA:186,5
DA:193,3
DA:194,9399
DA:195,93
DA:196,930093
DA:197,2790000
DA:200,3
DA:203,3
DA:204,3
DA:205,30003
DA:206,90000
DA:208,133
DA:209,1270127
DA:210,2540000
DA:211,1270000
DA:214,3
DA:217,4
DA:218,4
DA:219,4
DA:220,40004
DA:221,120000
DA:223,864
DA:224,8560856
DA:225,25680000
DA:228,4
DA:229,4
DA:232,4
DA:233,4
DA:234,40004
DA:235,120000
DA:237,349
DA:238,682
DA:240,4
DA:243,4
DA:244,4
DA:245,40004
DA:246,120000
DA:248,4
DA:249,26470
DA:250,262
DA:251,524
DA:253,4
DA:257,4
DA:258,4
DA:259,40004
DA:260,120000
DA:263,843
DA:264,1670
DA:266,4
DA:270,4
DA:271,4
DA:272,40004
DA:273,120000
DA:275,4
DA:277,348
DA:278,340
DA:279,340
DA:280,340
DA:281,4
DA:285,6
DA:286,6
DA:287,6
DA:290,1542
DA:291,4608
DA:294,94417
DA:295,94405
DA:298,6
DA:300,6
DA:306,7
DA:307,7
DA:308,70007
DA:309,70000
DA:311,287541
DA:312,287520
DA:315,7
DA:319,8
DA:320,8
DA:321,80008
DA:322,80000
DA:324,5096587
DA:325,5096563
DA:326,5096563
DA:329,8
DA:333,10
DA:334,10
DA:335,100010
DA:336,100000
DA:338,543399131
DA:339,543399101
DA:342,10
DA:346,10
DA:347,10
DA:348,100010
DA:349,100000
DA:351,1015938656
DA:352,1015938626
DA:355,10
DA:359,5
DA:360,5
DA:361,50005
DA:362,50000
DA:364,5
DA:365,6610
DA:366,6600
DA:369,5
DA:370,5
DA:374,10
DA:375,10
DA:376,100010
DA:377,100000
DA:379,10
DA:380,634911195
DA:381,634911175
DA:383,10
DA:385,10
DA:389,10
DA:390,10
DA:391,10
DA:392,100010
DA:393,100000
DA:395,417814309
DA:396,417814289
DA:398,10
DA:400,10
DA:404,6
DA:405,6
DA:406,60006
DA:407,60000
DA:409,62583
DA:410,625712565
DA:411,625650000
DA:415,6
DA:419,4
DA:420,12
DA:421,4
DA:422,4194308
DA:423,4194304
DA:425,4
DA:426,4
DA:427,652
DA:428,671089280
DA:429,671088640
DA:433,4
DA:437,7
DA:438,7
DA:439,70007
DA:440,70000
DA:442,768568
DA:443,7686238547
DA:444,7685470000
DA:448,7
DA:452,6
DA:453,6
DA:454,60006
DA:455,60000
DA:457,62395
DA:458,124754
DA:459,623770000
DA:463,6
DA:467,5
DA:468,5
DA:469,50005
DA:470,100000
DA:472,5
DA:474,2630
DA:475,2620
DA:476,2620
DA:477,2620
DA:480,5
DA:481,5
DA:487,9
DA:488,9
DA:489,43482298
DA:490,43482271
DA:493,9
DA:497,9
DA:498,9
DA:499,90009
DA:500,90000
DA:502,92246392
DA:503,92246365
DA:504,92246365
DA:507,9
DA:511,9
DA:512,9
DA:513,90009
DA:514,90000
DA:516,63019614
DA:517,63019587
DA:518,63019587
DA:519,63019587
DA:522,9
DA:526,10
DA:527,10
DA:528,100010
DA:529,100000
DA:531,640650648
DA:532,640650618
DA:534,10
DA:538,4
DA:539,4
DA:540,40004
DA:541,40000
DA:543,1256
DA:544,2488
DA:546,4
DA:550,4
DA:551,4
DA:552,40004
DA:553,40000
DA:555,4
DA:556,1078
DA:557,2132
DA:559,4
DA:563,10
DA:564,10
DA:565,100010
DA:566,100000
DA:568,629208956
DA:569,629208936
DA:571,10
DA:575,5
DA:576,5
DA:577,50005
DA:578,50000
DA:580,5
DA:581,5139
DA:582,5129
DA:584,5
DA:585,5
DA:589,5
DA:590,5
DA:591,50005
DA:592,50000
DA:594,5
DA:596,3032
DA:597,3017
DA:600,10
DA:604,5
DA:605,5
DA:606,50005
DA:607,50000
DA:609,5
DA:610,5
DA:612,3118
DA:613,3103
DA:614,3103
DA:615,3103
DA:616,10
DA:622,8
DA:623,8
DA:624,8
DA:627,80008
DA:628,80000
DA:631,4282705
DA:633,47109579
DA:634,42826890
DA:638,47109579
DA:639,42826890
DA:643,47109579
DA:644,42826890
DA:648,4282689
DA:651,8
DA:652,8
DA:657,4
DA:658,4
DA:659,40004
DA:660,120000
DA:662,1119
DA:663,1111
DA:664,2222
DA:667,4
DA:671,5
DA:672,5
DA:674,2671
DA:675,5322
DA:678,5
DA:682,4
DA:683,4
DA:686,4
DA:687,40004
DA:688,120000
DA:692,1119
DA:693,1111
DA:695,4
DA:699,5
DA:700,5
DA:703,5
DA:706,1333
DA:707,1323
DA:709,5
DA:713,5
DA:714,5
DA:715,5
DA:716,50005
DA:717,150000
DA:719,7271
DA:720,7261
DA:721,7261
DA:723,5
DA:724,5
DA:725,5
DA:727,5
DA:734,5
DA:735,5
DA:736,5
DA:737,2642
DA:738,26322632
DA:739,78960000
DA:742,5
DA:744,5
DA:747,4
DA:748,4
DA:749,4
DA:750,40004
DA:751,120000
DA:753,4
DA:754,504
DA:755,496
DA:756,992
DA:759,4
DA:760,8
DA:764,10
DA:765,10
DA:766,10
DA:767,100010
DA:768,300000
DA:770,626958755
DA:771,627058735
DA:772,100000
DA:775,10
DA:777,10
DA:781,17
DA:782,17
DA:783,17
DA:784,170017
DA:785,510000
DA:787,2439066363
DA:788,2439236329
DA:789,170000
DA:792,17
DA:794,17
DA:798,2
DA:799,14
DA:800,10
DA:802,100010
DA:803,300000
DA:807,100010
DA:808,100000
DA:809,100000
DA:813,2
DA:817,6
DA:818,6
DA:819,6
DA:820,60006
DA:821,60000
DA:823,33266
DA:824,66508
DA:826,6
DA:828,6
DA:832,6
DA:833,6
DA:834,6
DA:835,60006
DA:836,60000
DA:838,79349
DA:839,79337
DA:841,6
DA:843,6
DA:847,5
DA:848,5
DA:849,5
DA:850,50005
DA:851,150000
DA:853,7044
DA:854,7034
DA:856,5
DA:858,5
DA:862,10
DA:863,10
DA:864,100010
DA:865,100000
DA:867,634667599
DA:868,634567569
DA:871,10
DA:875,4
DA:876,4
DA:877,40004
DA:878,40000
DA:880,40464
DA:881,452
DA:882,904
DA:885,4
DA:889,4
DA:890,4
DA:891,40004
DA:892,120000
DA:894,41069
DA:895,2114
DA:897,4
DA:901,4
DA:902,4
DA:904,40950
DA:905,1876
DA:907,4
DA:913,5
DA:914,5
DA:915,5
DA:916,4942
DA:917,49324932
DA:918,49320000
DA:921,5
DA:923,5
DA:927,5
DA:928,5
DA:929,5
DA:930,8396
DA:931,83868386
DA:932,83860000
DA:935,5
DA:937,5
DA:941,10
DA:942,10
DA:943,10
DA:944,100010
DA:945,100000
DA:947,1111111131
DA:948,1111211111
DA:949,100000
DA:952,10
DA:954,10
DA:958,10
DA:959,10
DA:960,10
DA:961,100010
DA:962,100000
DA:964,1111111131
DA:965,1111211111
DA:966,100000
DA:969,10
DA:971,10
DA:975,2
DA:976,2
DA:977,16
DA:978,12
DA:979,120012
DA:980,120000
DA:982,120012
DA:983,120000
DA:984,120000
DA:987,2
DA:989,2
DA:993,5
DA:994,5
DA:995,5
DA:996,50005
DA:997,50000
DA:999,12018
DA:1000,24016
DA:1002,5
DA:1004,5
DA:1008,6
DA:1009,6
DA:1010,6
DA:1011,60006
DA:1012,60000
DA:1014,43082
DA:1015,43070
DA:1017,6
DA:1019,6
DA:1023,5
DA:1024,5
DA:1025,5
DA:1026,50005
DA:1027,50000
DA:1029,6734
DA:1030,6724
DA:1032,5
DA:1034,5
DA:1038,10
DA:1039,10
DA:1040,10
DA:1041,100010
DA:1042,100000
DA:1044,643806200
DA:1045,643806180
DA:1047,10
DA:1049,10
DA:1053,1
DA:1054,1
DA:1055,1
DA:1056,10001
DA:1057,10000
DA:1059,3
DA:1060,1
DA:1061,2
DA:1063,1
DA:1065,1
DA:1071,2
DA:1072,2
DA:1073,9
DA:1074,30003
DA:1075,30000
DA:1079,2
DA:1083,5
DA:1084,5
DA:1085,50005
DA:1086,50000
DA:1088,7437
DA:1089,7422
DA:1092,5
DA:1096,5
DA:1097,5
DA:1098,50005
DA:1099,50000
DA:1101,11992
DA:1102,11977
DA:1105,5
DA:1109,5
DA:1110,5
DA:1111,5
DA:1112,50005
DA:1113,50000
DA:1115,5291
DA:1116,10562
DA:1118,5
DA:1120,5
DA:1124,5
DA:1125,5
DA:1126,5
DA:1127,50005
DA:1128,50000
DA:1130,13911
DA:1131,27802
DA:1133,5
DA:1134,5
DA:1135,5
DA:1137,5
DA:1141,4
DA:1142,4
DA:1143,40004
DA:1144,40000
DA:1146,765
DA:1147,1514
DA:1149,4
DA:1150,8
DA:1151,4
DA:1155,4
DA:1156,4
DA:1157,40004
DA:1158,40000
DA:1160,4
DA:1161,789
DA:1162,1554
DA:1165,4
DA:1168,9
DA:1169,9
DA:1170,9
DA:1171,90009
DA:1172,90000
DA:1174,40921649
DA:1175,40921631
DA:1177,9
DA:1179,9
DA:1182,10
DA:1183,10
DA:1184,10
DA:1185,100010
DA:1186,100000
DA:1188,645097482
DA:1189,645097462
DA:1191,10
DA:1193,10
DA:1197,8
DA:1198,10480072
DA:1199,10480056
DA:1200,10480056
DA:1201,10480056
DA:1202,10480056
DA:1203,10480056
DA:1206,10480056
DA:1207,10480056
DA:1208,8
DA:1212,8
DA:1213,8428194
DA:1214,8428178
DA:1215,8428178
DA:1216,8428178
DA:1217,8428178
DA:1218,8428178
DA:1219,8428178
DA:1222,8428178
DA:1223,8428178
DA:1224,8
DA:1228,6
DA:1229,6
DA:1231,27643
DA:1232,27625
DA:1233,27625
DA:1234,27625
DA:1235,27625
DA:1236,27625
DA:1237,27625
DA:1239,27625
DA:1240,27625
DA:1241,6
DA:1244,7
DA:1245,7
DA:1246,355323
DA:1247,355302
DA:1248,355302
DA:1249,355302
DA:1250,7
DA:1258,1
LF:708
LH:706
end_of_record
TN:
SF:/home/discorre/vscodeproj/thierdLaba/myArray.hpp
FN:106,116,_ZNK7MyArrayIiE10saveToFileERKNSt7__cxx1112basic_stringIcSt11char_traitsIcESaIcEEE
FN:118,133,_ZNK7MyArrayINSt7__cxx1112basic_stringIcSt11char_traitsIcESaIcEEEE16saveToBinaryFileERKS5_
FN:141,152,_ZN7MyArrayIiE12loadFromFileERKNSt7__cxx1112basic_stringIcSt11char_traitsIcESaIcEEE
FN:155,174,_ZN7MyArrayINSt7__cxx1112basic_stringIcSt11char_traitsIcESaIcEEEE18loadFromBinaryFileERKS5_
FN:16,18,_ZN7MyArrayINSt7__cxx1112basic_stringIcSt11char_traitsIcESaIcEEEEC2Ei
FN:177,182,_ZNK7MyArrayIiE5printEv
FN:21,23,_ZN7MyArrayINSt7__cxx1112basic_stringIcSt11char_traitsIcESaIcEEEED2Ev
FN:26,31,_ZN7MyArrayINSt7__cxx1112basic_stringIcSt11char_traitsIcESaIcEEEE5MPUSHERKS5_
FN:26,31,_ZN7MyArrayIiE5MPUSHERKi
FN:34,47,_ZN7MyArrayIiE5MPUSHEiRKi
FN:50,60,_ZN7MyArrayIiE4MDELEi
FN:63,69,_ZN7MyArrayIiE4MGETEi
FN:72,78,_ZNK7MyArrayIiE4MGETEi
FN:81,87,_ZN7MyArrayIiE6MRESETEiRKi
FN:90,98,_ZN7MyArrayINSt7__cxx1112basic_stringIcSt11char_traitsIcESaIcEEEE6resizeEv
FN:90,98,_ZN7MyArrayIiE6resizeEv
FNDA:1458,_ZNK7MyArrayIiE10saveToFileERKNSt7__cxx1112basic_stringIcSt11char_traitsIcESaIcEEE
FNDA:5,_ZNK7MyArrayINSt7__cxx1112basic_stringIcSt11char_traitsIcESaIcEEEE16saveToBinaryFileERKS5_
FNDA:1997,_ZN7MyArrayIiE12loadFromFileERKNSt7__cxx1112basic_stringIcSt11char_traitsIcESaIcEEE
FNDA:3022,_ZN7MyArrayINSt7__cxx1112basic_stringIcSt11char_traitsIcESaIcEEEE18loadFromBinaryFileERKS5_
FNDA:5,_ZN7MyArrayINSt7__cxx1112basic_stringIcSt11char_traitsIcESaIcEEEEC2Ei
FNDA:6607,_ZNK7MyArrayIiE5printEv
FNDA:5,_ZN7MyArrayINSt7__cxx1112basic_stringIcSt11char_traitsIcESaIcEEEED2Ev
FNDA:50000,_ZN7MyArrayINSt7__cxx1112basic_stringIcSt11char_traitsIcESaIcEEEE5MPUSHERKS5_
FNDA:20628530,_ZN7MyArrayIiE5MPUSHERKi
FNDA:348530,_ZN7MyArrayIiE5MPUSHEiRKi
FNDA:348530,_ZN7MyArrayIiE4MDELEi
FNDA:697060,_ZN7MyArrayIiE4MGETEi
FNDA:348530,_ZNK7MyArrayIiE4MGETEi
FNDA:348537,_ZN7MyArrayIiE6MRESETEiRKi
FNDA:50,_ZN7MyArrayINSt7__cxx1112basic_stringIcSt11char_traitsIcESaIcEEEE6resizeEv
FNDA:321,_ZN7MyArrayIiE6resizeEv
FNF:16
FNH:16
DA:16,36
DA:17,86
DA:18,5
DA:21,36
DA:22,51236
DA:23,31
DA:26,20678530
DA:27,20678530
DA:28,360
DA:30,20678530
DA:31,20678530
DA:34,348530
DA:35,348530
DA:36,0
DA:38,348530
DA:39,11
DA:42,18360370711
DA:43,18360022181
DA:45,348530
DA:46,348530
DA:47,348530
DA:50,348530
DA:51,348530
DA:53,0
DA:56,18360196445
DA:57,18359847915
DA:59,348530
DA:60,348530
DA:63,697060
DA:64,697060
DA:66,348530
DA:68,697060
DA:72,348530
DA:73,348530
DA:75,0
DA:77,348530
DA:81,348537
DA:82,348537
DA:84,7
DA:86,348537
DA:87,348537
DA:90,371
DA:91,371
DA:92,102671
DA:93,860171
DA:94,859800
DA:96,51521
DA:97,371
DA:98,371
DA:101,1045590
DA:102,697060
DA:106,1458
DA:107,1458
DA:108,1458
DA:110,0
DA:112,14581458
DA:113,14580000
DA:115,1458
DA:116,1458
DA:118,5
DA:119,5
DA:120,5
DA:121,0
DA:124,5
DA:125,50005
DA:127,50000
DA:128,50000
DA:130,50000
DA:132,5
DA:133,5
DA:136,1111116135
DA:137,1111111116
DA:138,1997
DA:141,1997
DA:142,1997
DA:143,1997
DA:144,0
DA:146,1997
DA:148,19971997
DA:149,19970000
DA:151,1997
DA:152,1997
DA:155,3022
DA:156,3022
DA:157,3022
DA:158,0
DA:160,3022
DA:161,3022
DA:162,3022
DA:163,0
DA:164,0
DA:165,0
DA:167,30223022
DA:169,30220000
DA:170,30220000
DA:171,30220000
DA:173,3022
DA:174,3022
DA:177,6607
DA:178,66076607
DA:179,66070000
DA:181,6607
DA:182,6607
LF:103
LH:93
end_of_record
TN:
SF:/home/discorre/vscodeproj/thierdLaba/myDoublyLinkedList.hpp
FN:124,133,_ZNK18MyDoublyLinkedListIiE4LGETEi
FN:136,143,_ZNK18MyDoublyLinkedListIiE5printEv
FN:151,162,_ZNK18MyDoublyLinkedListIiE10saveToFileERKNSt7__cxx1112basic_stringIcSt11char_traitsIcESaIcEEE
FN:165,180,_ZNK18MyDoublyLinkedListINSt7__cxx1112basic_stringIcSt11char_traitsIcESaIcEEEE16saveToBinaryFileERKS5_
FN:183,202,_ZN18MyDoublyLinkedListINSt7__cxx1112basic_stringIcSt11char_traitsIcESaIcEEEE18loadFromBinaryFileERKS5_
FN:205,216,_ZN18MyDoublyLinkedListIiE12loadFromFileERKNSt7__cxx1112basic_stringIcSt11char_traitsIcESaIcEEE
FN:27,38,_ZN18MyDoublyLinkedListIiE9LPUSHHEADERKi
FN:41,52,_ZN18MyDoublyLinkedListINSt7__cxx1112basic_stringIcSt11char_traitsIcESaIcEEEE9LPUSHTAILERKS5_
FN:41,52,_ZN18MyDoublyLinkedListIiE9LPUSHTAILERKi
FN:55,69,_ZN18MyDoublyLinkedListINSt7__cxx1112basic_stringIcSt11char_traitsIcESaIcEEEE8LDELHEADEv
FN:55,69,_ZN18MyDoublyLinkedListIiE8LDELHEADEv
FN:72,86,_ZN18MyDoublyLinkedListIiE8LDELTAILEv
FN:89,109,_ZN18MyDoublyLinkedListIiE4LDELEi
FNDA:43070,_ZNK18MyDoublyLinkedListIiE4LGETEi
FNDA:6724,_ZNK18MyDoublyLinkedListIiE5printEv
FNDA:1,_ZNK18MyDoublyLinkedListIiE10saveToFileERKNSt7__cxx1112basic_stringIcSt11char_traitsIcESaIcEEE
FNDA:1057,_ZNK18MyDoublyLinkedListINSt7__cxx1112basic_stringIcSt11char_traitsIcESaIcEEEE16saveToBinaryFileERKS5_
FNDA:938,_ZN18MyDoublyLinkedListINSt7__cxx1112basic_stringIcSt11char_traitsIcESaIcEEEE18loadFromBinaryFileERKS5_
FNDA:1,_ZN18MyDoublyLinkedListIiE12loadFromFileERKNSt7__cxx1112basic_stringIcSt11char_traitsIcESaIcEEE
FNDA:49320000,_ZN18MyDoublyLinkedListIiE9LPUSHHEADERKi
FNDA:9420000,_ZN18MyDoublyLinkedListINSt7__cxx1112basic_stringIcSt11char_traitsIcESaIcEEEE9LPUSHTAILERKS5_
FNDA:84460000,_ZN18MyDoublyLinkedListIiE9LPUSHTAILERKi
FNDA:9420000,_ZN18MyDoublyLinkedListINSt7__cxx1112basic_stringIcSt11char_traitsIcESaIcEEEE8LDELHEADEv
FNDA:133560300,_ZN18MyDoublyLinkedListIiE8LDELHEADEv
FNDA:100024,_ZN18MyDoublyLinkedListIiE8LDELTAILEv
FNDA:120000,_ZN18MyDoublyLinkedListIiE4LDELEi
FNF:13
FNH:13
DA:7,9420000
DA:12,152620000
DA:20,77
DA:22,0
DA:23,8
DA:24,77
DA:27,49320000
DA:28,49320000
DA:29,49320000
DA:30,5
DA:33,49319995
DA:34,49319995
DA:35,49319995
DA:37,49320000
DA:38,49320000
DA:41,93880000
DA:42,93880000
DA:43,93880000
DA:44,1007
DA:47,93878993
DA:48,93878993
DA:49,93878993
DA:51,93880000
DA:52,93880000
DA:55,142980300
DA:56,142980300
DA:57,0
DA:59,142980300
DA:60,142980300
DA:61,142980300
DA:62,142979298
DA:65,1002
DA:67,142980300
DA:68,142980300
DA:69,142980300
DA:72,100024
DA:73,100024
DA:74,0
DA:76,100024
DA:77,100024
DA:78,100024
DA:79,100014
DA:82,10
DA:84,100024
DA:85,100024
DA:86,100024
DA:89,120000
DA:90,120000
DA:91,0
DA:93,120000
DA:94,300
DA:95,300
DA:97,119700
DA:98,24
DA:99,24
DA:101,119676
DA:102,213045012
DA:103,212925336
DA:105,119676
DA:106,119676
DA:107,119676
DA:108,119676
DA:112,12008
DA:113,12008
DA:114,120080000
DA:115,120080000
DA:118,120067992
DA:124,43070
DA:125,43070
DA:126,0
DA:128,43070
DA:129,215393070
DA:130,215350000
DA:132,43070
DA:136,6724
DA:137,6724
DA:138,67246724
DA:139,67240000
DA:140,67240000
DA:142,6724
DA:143,6724
DA:146,2866348402
DA:147,2866348402
DA:151,1
DA:152,1
DA:153,1
DA:154,0
DA:156,1
DA:157,10001
DA:158,10000
DA:159,10000
DA:161,1
DA:162,1
DA:165,1057
DA:166,1057
DA:167,1057
DA:168,0
DA:171,1057
DA:172,1057
DA:173,10571057
DA:174,10570000
DA:175,10570000
DA:176,10570000
DA:177,10570000
DA:179,1057
DA:180,1057
DA:183,938
DA:184,938
DA:185,938
DA:186,0
DA:190,938
DA:194,9380938
DA:196,9380000
DA:197,9380000
DA:198,9380000
DA:199,9380000
DA:201,938
DA:202,938
DA:205,1
DA:206,1
DA:207,1
DA:208,0
DA:212,10001
DA:213,10000
DA:215,1
DA:216,1
DA:219,0
DA:220,142881016
DA:221,142880000
LF:129
LH:119
end_of_record
TN:
SF:/home/discorre/vscodeproj/thierdLaba/myFullBinaryTree.hpp
FN:100,111,_ZNK14FullBinaryTreeIiE6isFullEP4NodeIiE
FN:114,127,_ZNK14FullBinaryTreeIiE10saveBinaryEP4NodeIiERSt14basic_ofstreamIcSt11char_traitsIcEE
FN:130,149,_ZN14FullBinaryTreeIiE10loadBinaryERSt14basic_ifstreamIcSt11char_traitsIcEE
FN:162,198,_ZN14FullBinaryTreeIiE10deleteNodeEP4NodeIiEi
FN:201,207,_ZN14FullBinaryTreeIiE5clearEP4NodeIiE
FN:24,41,_ZN14FullBinaryTreeIiE6insertEP4NodeIiEi
FN:242,249,_ZNK14FullBinaryTreeIiE10saveToFileERKNSt7__cxx1112basic_stringIcSt11char_traitsIcESaIcEEE
FN:252,260,_ZN14FullBinaryTreeIiE12loadFromFileERKNSt7__cxx1112basic_stringIcSt11char_traitsIcESaIcEEE
FN:263,267,_ZNK14FullBinaryTreeIiE9printRootEv
FN:270,277,_ZNK14FullBinaryTreeIiE16saveToBinaryFileERKNSt7__cxx1112basic_stringIcSt11char_traitsIcESaIcEEE
FN:280,288,_ZN14FullBinaryTreeIiE18loadFromBinaryFileERKNSt7__cxx1112basic_stringIcSt11char_traitsIcESaIcEEE
FN:44,54,_ZNK14FullBinaryTreeIiE6searchEP4NodeIiEi
FN:67,73,_ZNK14FullBinaryTreeIiE7inOrderEP4NodeIiE
FN:77,85,_ZNK14FullBinaryTreeIiE12savePreOrderEP4NodeIiERSt14basic_ofstreamIcSt11char_traitsIcEE
FN:88,97,_ZN14FullBinaryTreeIiE12loadPreOrderERSt14basic_ifstreamIcSt11char_traitsIcEE
FNDA:69505000,_ZNK14FullBinaryTreeIiE6isFullEP4NodeIiE
FNDA:165750,_ZNK14FullBinaryTreeIiE10saveBinaryEP4NodeIiERSt14basic_ofstreamIcSt11char_traitsIcEE
FNDA:3908322,_ZN14FullBinaryTreeIiE10loadBinaryERSt14basic_ifstreamIcSt11char_traitsIcEE
FNDA:251401926,_ZN14FullBinaryTreeIiE10deleteNodeEP4NodeIiEi
FNDA:170402322,_ZN14FullBinaryTreeIiE5clearEP4NodeIiE
FNDA:1477354281,_ZN14FullBinaryTreeIiE6insertEP4NodeIiEi
FNDA:761,_ZNK14FullBinaryTreeIiE10saveToFileERKNSt7__cxx1112basic_stringIcSt11char_traitsIcESaIcEEE
FNDA:781,_ZN14FullBinaryTreeIiE12loadFromFileERKNSt7__cxx1112basic_stringIcSt11char_traitsIcESaIcEEE
FNDA:40921631,_ZNK14FullBinaryTreeIiE9printRootEv
FNDA:27625,_ZNK14FullBinaryTreeIiE16saveToBinaryFileERKNSt7__cxx1112basic_stringIcSt11char_traitsIcESaIcEEE
FNDA:355302,_ZN14FullBinaryTreeIiE18loadFromBinaryFileERKNSt7__cxx1112basic_stringIcSt11char_traitsIcESaIcEEE
FNDA:59896977,_ZNK14FullBinaryTreeIiE6searchEP4NodeIiEi
FNDA:52815281,_ZNK14FullBinaryTreeIiE7inOrderEP4NodeIiE
FNDA:7610761,_ZNK14FullBinaryTreeIiE12savePreOrderEP4NodeIiERSt14basic_ofstreamIcSt11char_traitsIcEE
FNDA:15620781,_ZN14FullBinaryTreeIiE12loadPreOrderERSt14basic_ifstreamIcSt11char_traitsIcEE
FNF:15
FNH:15
DA:15,94285749
DA:24,1477354281
DA:25,1477354281
DA:26,84699239
DA:30,1392655042
DA:31,38121718
DA:33,1354533324
DA:34,27641613
DA:37,1326891711
DA:44,59896977
DA:45,59896977
DA:48,59896977
DA:53,59885000
DA:60,8428178
DA:67,52815281
DA:68,105625281
DA:69,52810000
DA:70,52810000
DA:71,52810000
DA:73,52815281
DA:77,7610761
DA:78,15220761
DA:79,7610761
DA:82,7610000
DA:83,7610000
DA:84,7610000
DA:88,15620781
DA:89,15620781
DA:90,15620781
DA:93,7810000
DA:94,7810000
DA:95,7810000
DA:96,7810000
DA:97,15620781
DA:100,69505000
DA:101,69505000
DA:105,69505000
DA:110,69491099
DA:114,165750
DA:115,303875
DA:116,165750
DA:117,165750
DA:122,138125
DA:125,138125
DA:126,138125
DA:130,3908322
DA:132,3908322
DA:137,3908322
DA:142,1776510
DA:145,1776510
DA:146,1776510
DA:148,1776510
DA:154,19291219
DA:157,19291219
DA:158,19291210
DA:159,19291210
DA:162,251401926
DA:163,251401926
DA:168,139365463
DA:170,27336417
DA:171,8428183
DA:172,8428183
DA:176,18908234
DA:177,0
DA:178,0
DA:179,0
DA:181,18908234
DA:182,10480056
DA:183,10480056
DA:184,10480056
DA:188,8428178
DA:189,8428178
DA:190,8428178
DA:193,112029046
DA:194,112029046
DA:201,170402322
DA:202,170402322
DA:203,75377510
DA:204,75377510
DA:205,75377510
DA:207,170402322
DA:210,18935859
DA:211,19435859
DA:215,18915656
DA:216,18915656
DA:220,11977
DA:221,11977
DA:225,5281
DA:226,5281
DA:227,5281
DA:228,5281
DA:231,13901
DA:232,13901
DA:233,13901
DA:242,761
DA:243,761
DA:244,761
DA:245,0
DA:247,761
DA:248,761
DA:249,761
DA:252,781
DA:253,781
DA:254,781
DA:255,0
DA:257,781
DA:258,781
DA:259,781
DA:260,781
DA:263,40921631
DA:264,40921631
DA:265,40921631
DA:267,40921631
DA:270,27625
DA:271,27625
DA:272,27625
DA:273,0
DA:275,27625
DA:276,27625
DA:277,27625
DA:280,355302
DA:281,355302
DA:282,355302
DA:283,0
DA:285,355302
DA:286,355302
DA:287,355302
DA:288,355302
DA:290,645097462
DA:291,645097462
LF:130
LH:123
end_of_record
TN:
SF:/home/discorre/vscodeproj/thierdLaba/myHashMap.hpp
FN:103,117,_ZN9MyHashMapINSt7__cxx1112basic_stringIcSt11char_traitsIcESaIcEEEiE12loadFromFileERKS5_
FN:120,152,_ZNK9MyHashMapINSt7__cxx1112basic_stringIcSt11char_traitsIcESaIcEEEiE16saveToBinaryFileERKS5_
FN:154,193,_ZN9MyHashMapINSt7__cxx1112basic_stringIcSt11char_traitsIcESaIcEEEiE18loadFromBinaryFileERKS5_
FN:26,28,_ZN9MyHashMapINSt7__cxx1112basic_stringIcSt11char_traitsIcESaIcEEEiEC2Ei
FN:31,33,_ZN9MyHashMapINSt7__cxx1112basic_stringIcSt11char_traitsIcESaIcEEEiED2Ev
FN:36,45,_ZN9MyHashMapINSt7__cxx1112basic_stringIcSt11char_traitsIcESaIcEEEiE4HGETERKS5_
FN:48,55,_ZN9MyHashMapINSt7__cxx1112basic_stringIcSt11char_traitsIcESaIcEEEiE4HSETERKS5_RKi
FN:58,67,_ZN9MyHashMapINSt7__cxx1112basic_stringIcSt11char_traitsIcESaIcEEEiE4HDELERKS5_
FN:69,75,_ZNK9MyHashMapINSt7__cxx1112basic_stringIcSt11char_traitsIcESaIcEEEiE5printEv
FN:77,99,_ZNK9MyHashMapINSt7__cxx1112basic_stringIcSt11char_traitsIcESaIcEEEiE10saveToFileERKS5_
FNDA:262,_ZN9MyHashMapINSt7__cxx1112basic_stringIcSt11char_traitsIcESaIcEEEiE12loadFromFileERKS5_
FNDA:839,_ZNK9MyHashMapINSt7__cxx1112basic_stringIcSt11char_traitsIcESaIcEEEiE16saveToBinaryFileERKS5_
FNDA:340,_ZN9MyHashMapINSt7__cxx1112basic_stringIcSt11char_traitsIcESaIcEEEiE18loadFromBinaryFileERKS5_
FNDA:355,_ZN9MyHashMapINSt7__cxx1112basic_stringIcSt11char_traitsIcESaIcEEEiEC2Ei
FNDA:355,_ZN9MyHashMapINSt7__cxx1112basic_stringIcSt11char_traitsIcESaIcEEEiED2Ev
FNDA:1270000,_ZN9MyHashMapINSt7__cxx1112basic_stringIcSt11char_traitsIcESaIcEEEiE4HGETERKS5_
FNDA:7181536,_ZN9MyHashMapINSt7__cxx1112basic_stringIcSt11char_traitsIcESaIcEEEiE4HSETERKS5_RKi
FNDA:8560000,_ZN9MyHashMapINSt7__cxx1112basic_stringIcSt11char_traitsIcESaIcEEEiE4HDELERKS5_
FNDA:94405,_ZNK9MyHashMapINSt7__cxx1112basic_stringIcSt11char_traitsIcESaIcEEEiE5printEv
FNDA:345,_ZNK9MyHashMapINSt7__cxx1112basic_stringIcSt11char_traitsIcESaIcEEEiE10saveToFileERKS5_
FNF:10
FNH:10
DA:16,17011536
DA:17,17011536
DA:18,190855094
DA:19,166662022
DA:26,355
DA:27,11915
DA:28,355
DA:31,355
DA:32,348515
DA:33,355
DA:36,1270000
DA:37,1270000
DA:38,2540000
DA:39,1270000
DA:43,0
DA:48,7181536
DA:49,7181536
DA:50,21544608
DA:51,7181536
DA:53,0
DA:55,7181536
DA:58,8560000
DA:59,8560000
DA:60,8560000
DA:61,17120000
DA:62,40000
DA:65,8520000
DA:67,8560000
DA:69,94405
DA:70,1038455
DA:71,944050
DA:72,944050
DA:74,94405
DA:75,94405
DA:77,345
DA:78,345
DA:79,345
DA:80,0
DA:82,34845
DA:84,34500
DA:85,34500
DA:86,0
DA:90,3484500
DA:91,3450000
DA:93,3450000
DA:94,3450000
DA:98,345
DA:99,345
DA:103,262
DA:104,262
DA:105,262
DA:106,0
DA:108,262
DA:110,262
DA:112,2620262
DA:113,2620000
DA:116,262
DA:117,262
DA:120,839
DA:121,839
DA:122,839
DA:123,0
DA:126,839
DA:128,839839
DA:129,839000
DA:131,839000
DA:132,839000
DA:134,9229000
DA:135,8390000
DA:137,8390000
DA:139,8390000
DA:140,8390000
DA:141,8390000
DA:146,8390000
DA:151,839
DA:152,839
DA:154,340
DA:155,340
DA:156,340
DA:157,0
DA:160,340
DA:161,3740
DA:163,340
DA:164,340340
DA:166,340340
DA:168,340000
DA:170,3740000
DA:171,3400000
DA:176,3400000
DA:178,3400000
DA:179,3400000
DA:180,3400000
DA:181,3400000
DA:182,3400000
DA:187,3400000
DA:188,3400000
DA:192,340
DA:193,340
DA:196,15
DA:197,67572
DA:198,66600
LF:101
LH:94
end_of_record
TN:
SF:/home/discorre/vscodeproj/thierdLaba/myListKV.hpp
FN:111,119,_ZN6MyListINSt7__cxx1112basic_stringIcSt11char_traitsIcESaIcEEEiE5clearEv
FN:30,40,_ZN6MyListINSt7__cxx1112basic_stringIcSt11char_traitsIcESaIcEEEiE9push_backERKS5_RKi
FN:30,40,_ZN6MyListIiiE9push_backERKiS2_
FN:56,67,_ZNK6MyListINSt7__cxx1112basic_stringIcSt11char_traitsIcESaIcEEEiE6findAtEiRS5_Ri
FN:70,93,_ZN6MyListINSt7__cxx1112basic_stringIcSt11char_traitsIcESaIcEEEiE6removeERKS5_
FN:70,93,_ZN6MyListIiiE6removeERKi
FN:96,103,_ZNK6MyListINSt7__cxx1112basic_stringIcSt11char_traitsIcESaIcEEEiE5printEv
FNDA:418160,_ZN6MyListINSt7__cxx1112basic_stringIcSt11char_traitsIcESaIcEEEiE5clearEv
FNDA:7181536,_ZN6MyListINSt7__cxx1112basic_stringIcSt11char_traitsIcESaIcEEEiE9push_backERKS5_RKi
FNDA:33486369,_ZN6MyListIiiE9push_backERKiS2_
FNDA:11840000,_ZNK6MyListINSt7__cxx1112basic_stringIcSt11char_traitsIcESaIcEEEiE6findAtEiRS5_Ri
FNDA:40000,_ZN6MyListINSt7__cxx1112basic_stringIcSt11char_traitsIcESaIcEEEiE6removeERKS5_
FNDA:32226,_ZN6MyListIiiE6removeERKi
FNDA:944050,_ZNK6MyListINSt7__cxx1112basic_stringIcSt11char_traitsIcESaIcEEEiE5printEv
FNF:7
FNH:7
DA:9,40000
DA:13,47849441
DA:22,351585
DA:25,351560
DA:26,351585
DA:27,351560
DA:30,40667905
DA:31,47849441
DA:32,40667905
DA:33,385085
DA:36,40282820
DA:37,40282820
DA:39,40667905
DA:40,40667905
DA:43,17011536
DA:44,1111111111
DA:45,279798557
DA:46,264097021
DA:47,17011536
DA:50,262787021
DA:56,11840000
DA:57,11840000
DA:60,11840000
DA:61,222728128
DA:62,210888128
DA:64,11840000
DA:65,11840000
DA:66,11840000
DA:70,72226
DA:71,72226
DA:72,72226
DA:74,595680556
DA:75,595648336
DA:76,40006
DA:77,6
DA:80,40000
DA:82,40006
DA:83,400
DA:85,40006
DA:86,40006
DA:87,40006
DA:89,595608330
DA:90,595608330
DA:96,944050
DA:97,944050
DA:98,25111730
DA:99,24167680
DA:100,24167680
DA:102,944050
DA:103,944050
DA:106,4358000
DA:107,4358000
DA:111,418160
DA:112,41046084
DA:113,40627899
DA:114,7141536
DA:115,40627899
DA:117,418160
DA:118,418160
DA:119,418160
LF:60
LH:60
end_of_record
TN:
SF:/home/discorre/vscodeproj/thierdLaba/myQueue.hpp
FN:107,121,_ZN5QueueIiE18loadFromBinaryFileERKNSt7__cxx1112basic_stringIcSt11char_traitsIcESaIcEEE
FN:125,136,_ZN5QueueIiE12loadFromFileERKNSt7__cxx1112basic_stringIcSt11char_traitsIcESaIcEEE
FN:14,24,_ZN5QueueIiE6resizeEv
FN:33,40,_ZN5QueueIiE6Q_PUSHERKi
FN:42,48,_ZN5QueueIiE5Q_DELEv
FN:50,57,_ZN5QueueIiE5Q_POPEv
FN:68,78,_ZNK5QueueIiE5printEv
FN:81,90,_ZNK5QueueIiE10saveToFileERKNSt7__cxx1112basic_stringIcSt11char_traitsIcESaIcEEE
FN:93,104,_ZNK5QueueIiE16saveToBinaryFileERKNSt7__cxx1112basic_stringIcSt11char_traitsIcESaIcEEE
FNDA:3103,_ZN5QueueIiE18loadFromBinaryFileERKNSt7__cxx1112basic_stringIcSt11char_traitsIcESaIcEEE
FNDA:1066,_ZN5QueueIiE12loadFromFileERKNSt7__cxx1112basic_stringIcSt11char_traitsIcESaIcEEE
FNDA:63580,_ZN5QueueIiE6resizeEv
FNDA:241048223,_ZN5QueueIiE6Q_PUSHERKi
FNDA:155265952,_ZN5QueueIiE5Q_DELEv
FNDA:63019587,_ZN5QueueIiE5Q_POPEv
FNDA:5129,_ZNK5QueueIiE5printEv
FNDA:1248,_ZNK5QueueIiE10saveToFileERKNSt7__cxx1112basic_stringIcSt11char_traitsIcESaIcEEE
FNDA:3022,_ZNK5QueueIiE16saveToBinaryFileERKNSt7__cxx1112basic_stringIcSt11char_traitsIcESaIcEEE
FNF:9
FNH:9
DA:14,63580
DA:15,63580
DA:16,63580
DA:17,120892510
DA:18,120828930
DA:20,63580
DA:21,63580
DA:22,63580
DA:23,63580
DA:24,63580
DA:27,3173
DA:29,3173
DA:30,3173
DA:31,3173
DA:33,241048223
DA:34,241048223
DA:35,63580
DA:37,241048223
DA:38,241048223
DA:39,241048223
DA:40,241048223
DA:42,155265952
DA:43,155265952
DA:44,0
DA:46,155265952
DA:47,155265952
DA:48,155265952
DA:50,63019587
DA:51,63019587
DA:52,0
DA:54,63019587
DA:55,63019587
DA:56,63019587
DA:59,640650618
DA:60,640650618
DA:68,5129
DA:69,5129
DA:70,0
DA:71,0
DA:73,5129
DA:74,51295129
DA:75,51290000
DA:77,5129
DA:81,1248
DA:82,1248
DA:83,1248
DA:84,0
DA:86,12481248
DA:87,12480000
DA:89,1248
DA:90,1248
DA:93,3022
DA:94,3022
DA:95,3022
DA:96,0
DA:98,3022
DA:99,30223022
DA:100,30220000
DA:101,30220000
DA:103,3022
DA:104,3022
DA:107,3103
DA:108,3103
DA:109,3103
DA:110,0
DA:112,3103
DA:114,3103
DA:115,31033103
DA:117,31030000
DA:118,31030000
DA:120,3103
DA:121,3103
DA:125,1066
DA:126,1066
DA:127,1066
DA:128,0
DA:130,1066
DA:132,10661066
DA:133,10660000
DA:135,1066
DA:136,1066
DA:139,629213095
DA:140,629213095
DA:141,629213095
DA:142,629212029
DA:143,1066
LF:86
LH:78
end_of_record
TN:
SF:/home/discorre/vscodeproj/thierdLaba/mySinglyLinkedList.hpp
FN:121,130,_ZNK18MySinglyLinkedListIiE4LGETEi
FN:133,152,_ZNK18MySinglyLinkedListINSt7__cxx1112basic_stringIcSt11char_traitsIcESaIcEEEE16saveToBinaryFileERKS5_
FN:155,178,_ZN18MySinglyLinkedListINSt7__cxx1112basic_stringIcSt11char_traitsIcESaIcEEEE18loadFromBinaryFileERKS5_
FN:181,188,_ZNK18MySinglyLinkedListINSt7__cxx1112basic_stringIcSt11char_traitsIcESaIcEEEE5printEv
FN:196,207,_ZNK18MySinglyLinkedListIiE10saveToFileERKNSt7__cxx1112basic_stringIcSt11char_traitsIcESaIcEEE
FN:210,221,_ZN18MySinglyLinkedListIiE12loadFromFileERKNSt7__cxx1112basic_stringIcSt11char_traitsIcESaIcEEE
FN:26,36,_ZN18MySinglyLinkedListINSt7__cxx1112basic_stringIcSt11char_traitsIcESaIcEEEE9LPUSHHEADERKS5_
FN:39,49,_ZN18MySinglyLinkedListINSt7__cxx1112basic_stringIcSt11char_traitsIcESaIcEEEE9LPUSHTAILERKS5_
FN:39,49,_ZN18MySinglyLinkedListIiE9LPUSHTAILERKi
FN:52,63,_ZN18MySinglyLinkedListINSt7__cxx1112basic_stringIcSt11char_traitsIcESaIcEEEE8LDELHEADEv
FN:52,63,_ZN18MySinglyLinkedListIiE8LDELHEADEv
FN:66,84,_ZN18MySinglyLinkedListINSt7__cxx1112basic_stringIcSt11char_traitsIcESaIcEEEE8LDELTAILEv
FN:87,106,_ZN18MySinglyLinkedListINSt7__cxx1112basic_stringIcSt11char_traitsIcESaIcEEEE4LDELEi
FNDA:79337,_ZNK18MySinglyLinkedListIiE4LGETEi
FNDA:496,_ZNK18MySinglyLinkedListINSt7__cxx1112basic_stringIcSt11char_traitsIcESaIcEEEE16saveToBinaryFileERKS5_
FNDA:496,_ZN18MySinglyLinkedListINSt7__cxx1112basic_stringIcSt11char_traitsIcESaIcEEEE18loadFromBinaryFileERKS5_
FNDA:7034,_ZNK18MySinglyLinkedListINSt7__cxx1112basic_stringIcSt11char_traitsIcESaIcEEEE5printEv
FNDA:452,_ZNK18MySinglyLinkedListIiE10saveToFileERKNSt7__cxx1112basic_stringIcSt11char_traitsIcESaIcEEE
FNDA:452,_ZN18MySinglyLinkedListIiE12loadFromFileERKNSt7__cxx1112basic_stringIcSt11char_traitsIcESaIcEEE
FNDA:100000,_ZN18MySinglyLinkedListINSt7__cxx1112basic_stringIcSt11char_traitsIcESaIcEEEE9LPUSHHEADERKS5_
FNDA:31640000,_ZN18MySinglyLinkedListINSt7__cxx1112basic_stringIcSt11char_traitsIcESaIcEEEE9LPUSHTAILERKS5_
FNDA:4780000,_ZN18MySinglyLinkedListIiE9LPUSHTAILERKi
FNDA:31470250,_ZN18MySinglyLinkedListINSt7__cxx1112basic_stringIcSt11char_traitsIcESaIcEEEE8LDELHEADEv
FNDA:4780000,_ZN18MySinglyLinkedListIiE8LDELHEADEv
FNDA:170000,_ZN18MySinglyLinkedListINSt7__cxx1112basic_stringIcSt11char_traitsIcESaIcEEEE8LDELTAILEv
FNDA:100000,_ZN18MySinglyLinkedListINSt7__cxx1112basic_stringIcSt11char_traitsIcESaIcEEEE4LDELEi
FNF:13
FNH:13
DA:7,269750
DA:11,68260000
DA:19,81
DA:21,4
DA:22,18
DA:23,81
DA:26,100000
DA:27,100000
DA:28,100000
DA:29,10
DA:32,99990
DA:33,99990
DA:35,100000
DA:36,100000
DA:39,36420000
DA:40,36420000
DA:41,36420000
DA:42,1015
DA:45,36418985
DA:46,36418985
DA:48,36420000
DA:49,36420000
DA:52,36250250
DA:53,36250250
DA:54,0
DA:56,36250250
DA:57,36250250
DA:58,36250250
DA:59,36250250
DA:60,36250250
DA:61,1008
DA:63,36250250
DA:66,170000
DA:67,170000
DA:68,0
DA:70,170000
DA:71,170000
DA:72,17
DA:76,849915000
DA:79,169983
DA:80,169983
DA:82,170000
DA:83,170000
DA:84,170000
DA:87,100000
DA:88,100000
DA:89,0
DA:91,100000
DA:92,250
DA:93,250
DA:95,99750
DA:96,177439860
DA:97,177340110
DA:99,99750
DA:100,99750
DA:101,99750
DA:102,20
DA:104,99750
DA:105,99750
DA:109,33254
DA:110,33254
DA:111,332540000
DA:112,332540000
DA:115,332506746
DA:121,79337
DA:122,79337
DA:123,0
DA:125,79337
DA:126,396764337
DA:127,396685000
DA:129,79337
DA:133,496
DA:134,496
DA:135,496
DA:136,0
DA:140,496
DA:143,496
DA:144,4960496
DA:145,4960000
DA:146,4960000
DA:147,4960000
DA:148,4960000
DA:151,496
DA:152,496
DA:155,496
DA:156,496
DA:157,496
DA:158,0
DA:166,496
DA:169,4960496
DA:171,4960000
DA:172,4960000
DA:173,4960000
DA:174,4960000
DA:177,496
DA:178,496
DA:181,7034
DA:182,7034
DA:183,70347034
DA:184,70340000
DA:185,70340000
DA:187,7034
DA:188,7034
DA:191,3700962633
DA:192,3700962633
DA:196,452
DA:197,452
DA:198,452
DA:199,0
DA:201,452
DA:202,4520452
DA:203,4520000
DA:204,4520000
DA:206,452
DA:207,452
DA:210,452
DA:211,452
DA:212,452
DA:213,0
DA:217,4520452
DA:218,4520000
DA:220,452
DA:221,452
DA:224,4
DA:225,36151029
DA:226,36150000
LF:126
LH:118
end_of_record
TN:
SF:/home/discorre/vscodeproj/thierdLaba/myStack.hpp
FN:108,124,_ZNK7MyStackINSt7__cxx1112basic_stringIcSt11char_traitsIcESaIcEEEE16saveToFileBinaryERKS5_
FN:126,150,_ZN7MyStackINSt7__cxx1112basic_stringIcSt11char_traitsIcESaIcEEEE18loadFromBinaryFileERKS5_
FN:13,15,_ZN7MyStackINSt7__cxx1112basic_stringIcSt11char_traitsIcESaIcEEEEC2Ev
FN:154,158,_ZN7MyStackINSt7__cxx1112basic_stringIcSt11char_traitsIcESaIcEEEE5clearEv
FN:154,158,_ZN7MyStackIiE5clearEv
FN:18,20,_ZN7MyStackINSt7__cxx1112basic_stringIcSt11char_traitsIcESaIcEEEED2Ev
FN:23,28,_ZN7MyStackINSt7__cxx1112basic_stringIcSt11char_traitsIcESaIcEEEE5SPUSHERKS5_
FN:23,28,_ZN7MyStackIiE5SPUSHERKi
FN:31,37,_ZN7MyStackIiE4SDELEv
FN:40,47,_ZN7MyStackIiE4SPOPEv
FN:55,63,_ZN7MyStackINSt7__cxx1112basic_stringIcSt11char_traitsIcESaIcEEEE6resizeEv
FN:55,63,_ZN7MyStackIiE6resizeEv
FN:66,76,_ZNK7MyStackINSt7__cxx1112basic_stringIcSt11char_traitsIcESaIcEEEE5printEv
FN:79,90,_ZNK7MyStackINSt7__cxx1112basic_stringIcSt11char_traitsIcESaIcEEEE10saveToFileERKS5_
FN:93,106,_ZN7MyStackINSt7__cxx1112basic_stringIcSt11char_traitsIcESaIcEEEE12loadFromFileERKS5_
FNDA:1111,_ZNK7MyStackINSt7__cxx1112basic_stringIcSt11char_traitsIcESaIcEEEE16saveToFileBinaryERKS5_
FNDA:1323,_ZN7MyStackINSt7__cxx1112basic_stringIcSt11char_traitsIcESaIcEEEE18loadFromBinaryFileERKS5_
FNDA:23,_ZN7MyStackINSt7__cxx1112basic_stringIcSt11char_traitsIcESaIcEEEEC2Ev
FNDA:3989,_ZN7MyStackINSt7__cxx1112basic_stringIcSt11char_traitsIcESaIcEEEE5clearEv
FNDA:4282689,_ZN7MyStackIiE5clearEv
FNDA:23,_ZN7MyStackINSt7__cxx1112basic_stringIcSt11char_traitsIcESaIcEEEED2Ev
FNDA:39970000,_ZN7MyStackINSt7__cxx1112basic_stringIcSt11char_traitsIcESaIcEEEE5SPUSHERKS5_
FNDA:42906890,_ZN7MyStackIiE5SPUSHERKi
FNDA:42826890,_ZN7MyStackIiE4SDELEv
FNDA:42826890,_ZN7MyStackIiE4SPOPEv
FNDA:230,_ZN7MyStackINSt7__cxx1112basic_stringIcSt11char_traitsIcESaIcEEEE6resizeEv
FNDA:80,_ZN7MyStackIiE6resizeEv
FNDA:7266,_ZNK7MyStackINSt7__cxx1112basic_stringIcSt11char_traitsIcESaIcEEEE5printEv
FNDA:1111,_ZNK7MyStackINSt7__cxx1112basic_stringIcSt11char_traitsIcESaIcEEEE10saveToFileERKS5_
FNDA:2661,_ZN7MyStackINSt7__cxx1112basic_stringIcSt11char_traitsIcESaIcEEEE12loadFromFileERKS5_
FNF:15
FNH:15
DA:13,31
DA:14,261
DA:15,23
DA:18,31
DA:19,235551
DA:20,8
DA:23,82876890
DA:24,82876890
DA:25,310
DA:27,82876890
DA:28,82876890
DA:31,42826890
DA:32,42826890
DA:34,0
DA:36,42826890
DA:37,42826890
DA:40,42826890
DA:41,42826890
DA:43,42826810
DA:44,42826810
DA:46,80
DA:55,310
DA:56,310
DA:57,470890
DA:58,317440
DA:59,317130
DA:61,235600
DA:62,310
DA:63,310
DA:66,7266
DA:67,7266
DA:68,5
DA:69,5
DA:71,7261
DA:72,72617261
DA:73,72610000
DA:75,7261
DA:79,1111
DA:80,1111
DA:81,1111
DA:83,0
DA:86,11111111
DA:87,11110000
DA:89,1111
DA:90,1111
DA:93,2661
DA:94,2661
DA:95,2661
DA:97,0
DA:100,2661
DA:101,2661
DA:102,26612661
DA:103,26610000
DA:105,2661
DA:106,2661
DA:108,1111
DA:109,1111
DA:110,1111
DA:111,0
DA:113,1111
DA:114,11111111
DA:116,11110000
DA:117,11110000
DA:118,11110000
DA:123,1111
DA:124,1111
DA:126,1323
DA:127,1323
DA:128,1323
DA:129,0
DA:131,1323
DA:133,1323
DA:134,13231323
DA:135,13230000
DA:138,13230000
DA:139,13230000
DA:140,13230000
DA:141,13230000
DA:142,13230000
DA:143,13230000
DA:147,13230000
DA:149,1323
DA:150,1323
DA:154,4286678
DA:155,45031738
DA:156,45031738
DA:157,4286678
DA:158,4286678
LF:88
LH:83
end_of_record
TN:
SF:/home/discorre/vscodeproj/thierdLaba/myVector.hpp
FN:105,117,_ZNK8MyVectorINSt7__cxx1112basic_stringIcSt11char_traitsIcESaIcEEEE16saveToBinaryFileERKS5_
FN:120,140,_ZN8MyVectorINSt7__cxx1112basic_stringIcSt11char_traitsIcESaIcEEEE18loadFromBinaryFileERKS5_
FN:13,15,_ZN8MyVectorINSt7__cxx1112basic_stringIcSt11char_traitsIcESaIcEEEEC2Ei
FN:18,20,_ZN8MyVectorINSt7__cxx1112basic_stringIcSt11char_traitsIcESaIcEEEED2Ev
FN:23,28,_ZN8MyVectorINSt7__cxx1112basic_stringIcSt11char_traitsIcESaIcEEEE9push_backERKS5_
FN:23,28,_ZN8MyVectorIiE9push_backERKi
FN:31,43,_ZN8MyVectorIiE6insertEiRKi
FN:46,54,_ZN8MyVectorIiE5eraseEi
FN:57,62,_ZN8MyVectorIiE3getEi
FN:65,70,_ZNK8MyVectorIiE3getEi
FN:73,78,_ZN8MyVectorIiE3setEiRKi
FN:81,89,_ZN8MyVectorINSt7__cxx1112basic_stringIcSt11char_traitsIcESaIcEEEE6resizeEv
FN:81,89,_ZN8MyVectorIiE6resizeEv
FN:97,102,_ZNK8MyVectorIiE5printEv
FNDA:5,_ZNK8MyVectorINSt7__cxx1112basic_stringIcSt11char_traitsIcESaIcEEEE16saveToBinaryFileERKS5_
FNDA:2620,_ZN8MyVectorINSt7__cxx1112basic_stringIcSt11char_traitsIcESaIcEEEE18loadFromBinaryFileERKS5_
FNDA:2625,_ZN8MyVectorINSt7__cxx1112basic_stringIcSt11char_traitsIcESaIcEEEEC2Ei
FNDA:2625,_ZN8MyVectorINSt7__cxx1112basic_stringIcSt11char_traitsIcESaIcEEEED2Ev
FNDA:50000,_ZN8MyVectorINSt7__cxx1112basic_stringIcSt11char_traitsIcESaIcEEEE9push_backERKS5_
FNDA:10080867,_ZN8MyVectorIiE9push_backERKi
FNDA:287520,_ZN8MyVectorIiE6insertEiRKi
FNDA:5096563,_ZN8MyVectorIiE5eraseEi
FNDA:543399101,_ZN8MyVectorIiE3getEi
FNDA:417814289,_ZNK8MyVectorIiE3getEi
FNDA:1015938626,_ZN8MyVectorIiE3setEiRKi
FNDA:50,_ZN8MyVectorINSt7__cxx1112basic_stringIcSt11char_traitsIcESaIcEEEE6resizeEv
FNDA:869,_ZN8MyVectorIiE6resizeEv
FNDA:6600,_ZNK8MyVectorIiE5printEv
FNF:14
FNH:14
DA:13,2708
DA:14,28958
DA:15,2625
DA:18,2708
DA:19,26253908
DA:20,83
DA:23,10130867
DA:24,10130867
DA:25,908
DA:27,10130867
DA:28,10130867
DA:31,287520
DA:32,287520
DA:33,0
DA:35,287520
DA:36,11
DA:38,22048316451
DA:39,22048028931
DA:41,287520
DA:42,287520
DA:43,287520
DA:46,5096563
DA:47,5096563
DA:48,0
DA:50,25482815000
DA:51,25477718437
DA:53,5096563
DA:54,5096563
DA:57,543399101
DA:58,543399101
DA:59,0
DA:61,543399101
DA:65,417814289
DA:66,417814289
DA:67,0
DA:69,417814289
DA:73,1015938626
DA:74,1015938626
DA:75,0
DA:77,1015938626
DA:78,1015938626
DA:81,919
DA:82,919
DA:83,103219
DA:84,6594599
DA:85,6593680
DA:87,52069
DA:88,919
DA:89,919
DA:92,634911175
DA:93,634911175
DA:97,6600
DA:98,66006600
DA:99,66000000
DA:101,6600
DA:102,6600
DA:105,5
DA:106,5
DA:107,5
DA:108,0
DA:110,5
DA:111,50005
DA:112,50000
DA:113,50000
DA:114,50000
DA:116,5
DA:117,5
DA:120,2620
DA:121,2620
DA:122,2620
DA:123,0
DA:126,2620
DA:127,2620
DA:128,2620
DA:129,26202620
DA:130,28820
DA:131,2620
DA:133,26202620
DA:135,26200000
DA:136,26200000
DA:137,26200000
DA:139,2620
DA:140,2620
DA:143,831112
DA:144,831112
DA:148,8312013489
DA:149,8312013489
DA:153,640
DA:154,640
DA:157,671089280
DA:158,671089280
LF:91
LH:84
end_of_record
TN:
SF:/usr/include/benchmark/benchmark.h
FNF:0
FNH:0
DA:496,1089251459
DA:497,1089251459
DA:515,1794437631
DA:516,1794437631
DA:531,3262232237
DA:532,3262232237
DA:639,20
DA:640,10
DA:828,496
DA:848,10
DA:849,10
DA:850,10
DA:906,3269314822
DA:907,3269314822
DA:908,3269314822
DA:1037,496
DA:1038,496
DA:1045,13619447314
DA:1046,13619447314
DA:1047,13619447314
DA:1048,13619447314
DA:1052,13619447810
DA:1053,13619447810
DA:1054,496
DA:1055,8326913862
DA:1063,496
DA:1064,992
DA:1066,496
DA:1067,496
LF:29
LH:29
end_of_record
TN:
SF:/usr/include/c++/14/bits/alloc_traits.h
FNF:0
FNH:0
DA:508,10
DA:509,10
DA:543,0
DA:544,0
DA:560,10
DA:569,10
DA:587,0
DA:591,0
DA:620,55523072
DA:621,55523072
LF:10
LH:6
end_of_record
TN:
SF:/usr/include/c++/14/bits/allocator.h
FNF:0
FNH:0
DA:161,180774467
DA:165,236297619
DA:166,236297619
DA:182,455892653
LF:4
LH:4
end_of_record
TN:
SF:/usr/include/c++/14/bits/basic_ios.h
FNF:0
FNH:0
DA:121,64396439
DA:122,64396439
DA:129,19937391
DA:130,19937391
DA:141,84334041
DA:142,84334041
DA:161,211
DA:162,211
DA:205,84333830
DA:206,84333830
LF:10
LH:10
end_of_record
TN:
SF:/usr/include/c++/14/bits/basic_string.h
FN:3755,3761,_ZSteqIcSt11char_traitsIcESaIcEEbRKNSt7__cxx1112basic_stringIT_T0_T1_EESA_
FN:3772,3777,_ZSteqIcSt11char_traitsIcESaIcEEbRKNSt7__cxx1112basic_stringIT_T0_T1_EEPKS5_
FN:4240,4255,_ZNSt7__cxx119to_stringEi
FN:646,655,_ZNSt7__cxx1112basic_stringIcSt11char_traitsIcESaIcEEC2IS3_EEPKcRKS3_
FNDA:264137021,_ZSteqIcSt11char_traitsIcESaIcEEbRKNSt7__cxx1112basic_stringIT_T0_T1_EESA_
FNDA:15620781,_ZSteqIcSt11char_traitsIcESaIcEEbRKNSt7__cxx1112basic_stringIT_T0_T1_EEPKS5_
FNDA:37991536,_ZNSt7__cxx119to_stringEi
FNDA:16652537,_ZNSt7__cxx1112basic_stringIcSt11char_traitsIcESaIcEEC2IS3_EEPKcRKS3_
FNF:4
FNH:4
DA:186,274289075
DA:193,31042537
DA:194,31042537
DA:197,205255082
DA:198,149732010
DA:217,22517
DA:218,22517
DA:222,259899155
DA:223,259899155
DA:227,812463608
DA:228,110167145
DA:232,51275240
DA:235,153979842
DA:254,22517
DA:255,22517
DA:259,259899155
DA:261,259899155
DA:262,259899155
DA:346,55523072
DA:347,55523072
DA:353,149732010
DA:430,72175609
DA:432,72175609
DA:433,0
DA:435,72175609
DA:482,55523072
DA:483,55523072
DA:487,16652537
DA:489,16652537
DA:527,149732010
DA:529,111740474
DA:531,149732010
DA:532,111740474
DA:533,2923
DA:552,55523072
DA:553,55523072
DA:554,55523072
DA:556,55523072
DA:558,7181536
DA:646,16652537
DA:647,16652537
DA:650,16652537
DA:651,0
DA:653,16652537
DA:654,16652537
DA:655,16652537
DA:669,14390000
DA:670,14390000
DA:671,14390000
DA:808,37991536
DA:809,236297539
DA:817,52247590
DA:819,12177590
DA:969,17011536
DA:970,17011536
DA:987,17011536
DA:988,17011536
DA:1076,513577018
DA:1077,52141536
DA:1083,55523072
DA:1084,55523072
DA:1118,56420000
DA:1119,56420000
DA:1265,14840000
DA:1269,14840000
DA:1272,14840000
DA:1588,52247590
DA:1619,52247590
DA:2640,42940000
DA:2641,35130000
DA:2653,405394710
DA:2654,405394710
DA:2665,56420000
DA:2666,56420000
DA:3719,37991536
DA:3721,37991536
DA:3755,264137021
DA:3759,264137021
DA:3760,264137021
DA:3772,15620781
DA:3775,15620781
DA:3776,15620781
DA:3874,0
DA:3877,0
DA:4077,181677680
DA:4082,181677680
DA:4164,7810000
DA:4165,7810000
DA:4240,37991536
DA:4245,37991536
DA:4246,37991536
DA:4247,37991536
DA:4248,37991536
DA:4249,37991536
DA:4250,37991536
DA:4251,37991536
DA:4252,37991536
DA:4254,37991536
LF:98
LH:94
end_of_record
TN:
SF:/usr/include/c++/14/bits/basic_string.tcc
FN:221,252,_ZNSt7__cxx1112basic_stringIcSt11char_traitsIcESaIcEE12_M_constructIPKcEEvT_S8_St20forward_iterator_tag
FN:221,252,_ZNSt7__cxx1112basic_stringIcSt11char_traitsIcESaIcEE12_M_constructIPcEEvT_S7_St20forward_iterator_tag
FN:583,613,_ZNSt7__cxx1112basic_stringIcSt11char_traitsIcESaIcEE22__resize_and_overwriteIZNS_9to_stringEiEUlPcmE_EEvmT_
FNDA:16652537,_ZNSt7__cxx1112basic_stringIcSt11char_traitsIcESaIcEE12_M_constructIPKcEEvT_S8_St20forward_iterator_tag
FNDA:55523072,_ZNSt7__cxx1112basic_stringIcSt11char_traitsIcESaIcEE12_M_constructIPcEEvT_S7_St20forward_iterator_tag
FNDA:37991536,_ZNSt7__cxx1112basic_stringIcSt11char_traitsIcESaIcEE22__resize_and_overwriteIZNS_9to_stringEiEUlPcmE_EEvmT_
FNF:3
FNH:3
DA:221,72175609
DA:225,72175609
DA:227,72175609
DA:229,22517
DA:230,22517
DA:239,72175609
DA:242,72175609
DA:245,72175609
DA:247,72175609
DA:249,72175609
DA:251,72175609
DA:252,72175609
DA:583,37991536
DA:590,37991536
DA:591,37991536
DA:597,37991536
DA:601,37991536
DA:602,37991536
DA:610,37991536
DA:613,37991536
LF:20
LH:20
end_of_record
TN:
SF:/usr/include/c++/14/bits/char_traits.h
FNF:0
FNH:0
DA:343,259899155
DA:350,149732010
DA:351,0
DA:366,223717030
DA:368,223717030
DA:371,223717030
DA:381,223717030
DA:385,32273318
DA:388,32273318
DA:391,32273318
DA:419,72175609
DA:421,72175609
DA:427,72175609
LF:13
LH:12
end_of_record
TN:
SF:/usr/include/c++/14/bits/charconv.h
FN:81,110,_ZNSt8__detail18__to_chars_10_implIjEEvPcjT_
FNDA:37991536,_ZNSt8__detail18__to_chars_10_implIjEEvPcjT_
FNF:1
FNH:1
DA:55,37991536
DA:61,37991536
DA:62,37991536
DA:63,37991536
DA:64,37991536
DA:65,0
DA:67,37991536
DA:68,37953486
DA:69,37611036
DA:70,34191000
DA:71,0
DA:72,0
DA:81,37991536
DA:87,37991536
DA:93,37991536
DA:94,75602572
DA:96,37611036
DA:97,37611036
DA:98,37611036
DA:99,37611036
DA:100,37611036
DA:102,37991536
DA:104,34533450
DA:105,34533450
DA:106,34533450
DA:109,3458086
DA:110,37991536
LF:27
LH:24
end_of_record
TN:
SF:/usr/include/c++/14/bits/ios_base.h
FNF:0
FNH:0
DA:181,84333830
DA:182,84333830
DA:186,211
DA:187,211
LF:4
LH:4
end_of_record
TN:
SF:/usr/include/c++/14/bits/locale_facets.h
FN:1092,1093,_ZNKSt5ctypeIcE8do_widenEc
FN:880,886,_ZNKSt5ctypeIcE5widenEc
FNDA:1,_ZNKSt5ctypeIcE8do_widenEc
FNDA:93700074,_ZNKSt5ctypeIcE5widenEc
FNF:2
FNH:2
DA:880,93700074
DA:882,93700074
DA:883,93700074
DA:884,0
DA:885,0
DA:1092,1
DA:1093,1
LF:7
LH:5
end_of_record
TN:
SF:/usr/include/c++/14/bits/new_allocator.h
FNF:0
FNH:0
DA:88,180774467
DA:92,236297619
DA:104,455892653
DA:126,10
DA:151,10
DA:156,0
DA:172,0
DA:189,10
DA:191,10
DA:196,0
DA:198,0
LF:11
LH:7
end_of_record
TN:
SF:/usr/include/c++/14/bits/random.h
FN:1760,1760,_ZNSt13random_deviceC2Ev
FNDA:1,_ZNSt13random_deviceC2Ev
FNF:1
FNH:1
DA:244,623
DA:246,623
DA:248,623
DA:255,623
DA:260,624
DA:647,1
DA:648,1
DA:1760,2
DA:1765,1
DA:1766,1
DA:1781,1
DA:1782,1
LF:12
LH:12
end_of_record
TN:
SF:/usr/include/c++/14/bits/random.tcc
FN:397,425,_ZNSt23mersenne_twister_engineImLm32ELm624ELm397ELm31ELm2567483615ELm11ELm4294967295ELm7ELm2636928640ELm15ELm4022730752ELm18ELm1812433253EE11_M_gen_randEv
FN:453,469,_ZNSt23mersenne_twister_engineImLm32ELm624ELm397ELm31ELm2567483615ELm11ELm4294967295ELm7ELm2636928640ELm15ELm4022730752ELm18ELm1812433253EEclEv
FNDA:802,_ZNSt23mersenne_twister_engineImLm32ELm624ELm397ELm31ELm2567483615ELm11ELm4294967295ELm7ELm2636928640ELm15ELm4022730752ELm18ELm1812433253EE11_M_gen_randEv
FNDA:500000,_ZNSt23mersenne_twister_engineImLm32ELm624ELm397ELm31ELm2567483615ELm11ELm4294967295ELm7ELm2636928640ELm15ELm4022730752ELm18ELm1812433253EEclEv
FNF:2
FNH:2
DA:326,1
DA:330,1
DA:331,1
DA:333,624
DA:335,623
DA:336,623
DA:337,623
DA:338,623
DA:339,623
DA:340,623
DA:342,1
DA:397,802
DA:401,802
DA:402,802
DA:404,182856
DA:406,182054
DA:407,182054
DA:408,364108
DA:409,272913
DA:412,318394
DA:414,317592
DA:415,317592
DA:416,635184
DA:417,476585
DA:420,802
DA:421,802
DA:422,1604
DA:423,802
DA:424,802
DA:425,802
DA:453,500000
DA:458,500000
DA:459,802
DA:462,500000
DA:463,500000
DA:464,500000
DA:465,500000
DA:466,500000
DA:468,500000
LF:39
LH:39
end_of_record
TN:
SF:/usr/include/c++/14/bits/stl_algo.h
FNF:0
FNH:0
DA:3779,62377
DA:3784,623832377
DA:3785,623770000
LF:3
LH:3
end_of_record
TN:
SF:/usr/include/c++/14/bits/stl_function.h
FNF:0
FNH:0
DA:404,0
DA:405,0
DA:1179,10
DA:1180,10
LF:4
LH:2
end_of_record
TN:
SF:/usr/include/c++/14/bits/stl_iterator.h
FNF:0
FNH:0
DA:1067,17011536
DA:1100,166662022
DA:1102,166662022
DA:1103,166662022
LF:4
LH:4
end_of_record
TN:
SF:/usr/include/c++/14/bits/stl_iterator_base_funcs.h
FNF:0
FNH:0
DA:100,72175609
DA:106,72175609
DA:148,72175609
DA:151,72175609
LF:4
LH:4
end_of_record
TN:
SF:/usr/include/c++/14/bits/stl_map.h
FN:524,536,_ZNSt3mapINSt7__cxx1112basic_stringIcSt11char_traitsIcESaIcEEEN9benchmark7CounterESt4lessIS5_ESaISt4pairIKS5_S7_EEEixEOS5_
FNDA:10,_ZNSt3mapINSt7__cxx1112basic_stringIcSt11char_traitsIcESaIcEEEN9benchmark7CounterESt4lessIS5_ESaISt4pairIKS5_S7_EEEixEOS5_
FNF:1
FNH:1
DA:386,10
DA:387,10
DA:524,10
DA:529,10
DA:531,10
DA:532,10
DA:533,10
DA:534,10
DA:535,10
DA:1307,10
DA:1308,10
LF:11
LH:11
end_of_record
TN:
SF:/usr/include/c++/14/bits/stl_pair.h
FNF:0
FNH:0
DA:284,0
DA:752,0
DA:881,10
LF:3
LH:1
end_of_record
TN:
SF:/usr/include/c++/14/bits/stl_tree.h
FN:1266,1267,_ZNSt8_Rb_treeINSt7__cxx1112basic_stringIcSt11char_traitsIcESaIcEEESt4pairIKS5_N9benchmark7CounterEESt10_Select1stISA_ESt4lessIS5_ESaISA_EE11lower_boundERS7_
FN:1631,1634,_ZNSt8_Rb_treeINSt7__cxx1112basic_stringIcSt11char_traitsIcESaIcEEESt4pairIKS5_N9benchmark7CounterEESt10_Select1stISA_ESt4lessIS5_ESaISA_EE10_Auto_nodeC2IJRKSt21piecewise_construct_tSt5tupleIJOS5_EESM_IJEEEEERSG_DpOT_
FN:1636,1640,_ZNSt8_Rb_treeINSt7__cxx1112basic_stringIcSt11char_traitsIcESaIcEEESt4pairIKS5_N9benchmark7CounterEESt10_Select1stISA_ESt4lessIS5_ESaISA_EE10_Auto_nodeD2Ev
FN:2104,2128,_ZNSt8_Rb_treeINSt7__cxx1112basic_stringIcSt11char_traitsIcESaIcEEESt4pairIKS5_N9benchmark7CounterEESt10_Select1stISA_ESt4lessIS5_ESaISA_EE24_M_get_insert_unique_posERS7_
FN:2206,2257,_ZNSt8_Rb_treeINSt7__cxx1112basic_stringIcSt11char_traitsIcESaIcEEESt4pairIKS5_N9benchmark7CounterEESt10_Select1stISA_ESt4lessIS5_ESaISA_EE29_M_get_insert_hint_unique_posESt23_Rb_tree_const_iteratorISA_ERS7_
FN:2373,2385,_ZNSt8_Rb_treeINSt7__cxx1112basic_stringIcSt11char_traitsIcESaIcEEESt4pairIKS5_N9benchmark7CounterEESt10_Select1stISA_ESt4lessIS5_ESaISA_EE14_M_insert_nodeEPSt18_Rb_tree_node_baseSI_PSt13_Rb_tree_nodeISA_E
FN:2454,2463,_ZNSt8_Rb_treeINSt7__cxx1112basic_stringIcSt11char_traitsIcESaIcEEESt4pairIKS5_N9benchmark7CounterEESt10_Select1stISA_ESt4lessIS5_ESaISA_EE22_M_emplace_hint_uniqueIJRKSt21piecewise_construct_tSt5tupleIJOS5_EESL_IJEEEEESt17_Rb_tree_iteratorISA_ESt23_Rb_tree_const_iteratorISA_EDpOT_
FNDA:10,_ZNSt8_Rb_treeINSt7__cxx1112basic_stringIcSt11char_traitsIcESaIcEEESt4pairIKS5_N9benchmark7CounterEESt10_Select1stISA_ESt4lessIS5_ESaISA_EE11lower_boundERS7_
FNDA:10,_ZNSt8_Rb_treeINSt7__cxx1112basic_stringIcSt11char_traitsIcESaIcEEESt4pairIKS5_N9benchmark7CounterEESt10_Select1stISA_ESt4lessIS5_ESaISA_EE10_Auto_nodeC2IJRKSt21piecewise_construct_tSt5tupleIJOS5_EESM_IJEEEEERSG_DpOT_
FNDA:10,_ZNSt8_Rb_treeINSt7__cxx1112basic_stringIcSt11char_traitsIcESaIcEEESt4pairIKS5_N9benchmark7CounterEESt10_Select1stISA_ESt4lessIS5_ESaISA_EE10_Auto_nodeD2Ev
FNDA:10,_ZNSt8_Rb_treeINSt7__cxx1112basic_stringIcSt11char_traitsIcESaIcEEESt4pairIKS5_N9benchmark7CounterEESt10_Select1stISA_ESt4lessIS5_ESaISA_EE24_M_get_insert_unique_posERS7_
FNDA:10,_ZNSt8_Rb_treeINSt7__cxx1112basic_stringIcSt11char_traitsIcESaIcEEESt4pairIKS5_N9benchmark7CounterEESt10_Select1stISA_ESt4lessIS5_ESaISA_EE29_M_get_insert_hint_unique_posESt23_Rb_tree_const_iteratorISA_ERS7_
FNDA:10,_ZNSt8_Rb_treeINSt7__cxx1112basic_stringIcSt11char_traitsIcESaIcEEESt4pairIKS5_N9benchmark7CounterEESt10_Select1stISA_ESt4lessIS5_ESaISA_EE14_M_insert_nodeEPSt18_Rb_tree_node_baseSI_PSt13_Rb_tree_nodeISA_E
FNDA:10,_ZNSt8_Rb_treeINSt7__cxx1112basic_stringIcSt11char_traitsIcESaIcEEESt4pairIKS5_N9benchmark7CounterEESt10_Select1stISA_ESt4lessIS5_ESaISA_EE22_M_emplace_hint_uniqueIJRKSt21piecewise_construct_tSt5tupleIJOS5_EESL_IJEEEEESt17_Rb_tree_iteratorISA_ESt23_Rb_tree_const_iteratorISA_EDpOT_
FNF:7
FNH:7
DA:231,20
DA:235,10
DA:269,60
DA:270,10
DA:274,0
DA:281,0
DA:283,0
DA:296,0
DA:298,0
DA:299,0
DA:311,10
DA:346,10
DA:347,10
DA:350,10
DA:351,10
DA:546,20
DA:558,10
DA:559,20
DA:562,0
DA:563,0
DA:588,10
DA:593,10
DA:607,10
DA:609,10
DA:610,10
DA:616,0
DA:621,0
DA:622,0
DA:627,0
DA:629,0
DA:630,0
DA:631,0
DA:732,20
DA:733,20
DA:736,20
DA:737,20
DA:747,40
DA:748,40
DA:755,10
DA:773,10
DA:777,0
DA:778,0
DA:785,0
DA:786,0
DA:793,0
DA:794,0
DA:993,10
DA:994,10
DA:1001,10
DA:1002,10
DA:1029,10
DA:1030,10
DA:1266,10
DA:1267,20
DA:1631,10
DA:1632,10
DA:1633,10
DA:1634,10
DA:1636,10
DA:1638,10
DA:1639,0
DA:1640,10
DA:1647,10
DA:1648,10
DA:1651,10
DA:1653,10
DA:1654,10
DA:1655,10
DA:1943,10
DA:1947,10
DA:1948,0
DA:1949,0
DA:1951,0
DA:1952,10
DA:2104,10
DA:2108,10
DA:2109,10
DA:2110,10
DA:2111,10
DA:2113,0
DA:2114,0
DA:2115,0
DA:2117,10
DA:2118,10
DA:2120,10
DA:2121,10
DA:2123,0
DA:2125,0
DA:2126,0
DA:2127,0
DA:2206,10
DA:2210,10
DA:2214,10
DA:2216,10
DA:2217,10
DA:2218,0
DA:2220,10
DA:2222,0
DA:2225,0
DA:2226,0
DA:2227,0
DA:2228,0
DA:2230,0
DA:2231,0
DA:2233,0
DA:2236,0
DA:2238,0
DA:2241,0
DA:2242,0
DA:2243,0
DA:2244,0
DA:2246,0
DA:2247,0
DA:2249,0
DA:2252,0
DA:2256,0
DA:2373,10
DA:2377,10
DA:2378,10
DA:2381,10
DA:2382,10
DA:2383,10
DA:2384,10
DA:2454,10
DA:2458,10
DA:2459,10
DA:2460,10
DA:2461,10
DA:2462,0
DA:2463,10
LF:130
LH:77
end_of_record
TN:
SF:/usr/include/c++/14/bits/stl_vector.h
FNF:0
FNH:0
DA:992,3269314822
DA:993,3269314822
LF:2
LH:2
end_of_record
TN:
SF:/usr/include/c++/14/bits/uniform_int_dist.h
FN:257,281,_ZNSt24uniform_int_distributionImE5_S_ndImSt23mersenne_twister_engineImLm32ELm624ELm397ELm31ELm2567483615ELm11ELm4294967295ELm7ELm2636928640ELm15ELm4022730752ELm18ELm1812433253EEjEET1_RT0_S4_
FN:287,373,_ZNSt24uniform_int_distributionImEclISt23mersenne_twister_engineImLm32ELm624ELm397ELm31ELm2567483615ELm11ELm4294967295ELm7ELm2636928640ELm15ELm4022730752ELm18ELm1812433253EEEEmRT_RKNS0_10param_typeE
FNDA:500000,_ZNSt24uniform_int_distributionImE5_S_ndImSt23mersenne_twister_engineImLm32ELm624ELm397ELm31ELm2567483615ELm11ELm4294967295ELm7ELm2636928640ELm15ELm4022730752ELm18ELm1812433253EEjEET1_RT0_S4_
FNDA:500000,_ZNSt24uniform_int_distributionImEclISt23mersenne_twister_engineImLm32ELm624ELm397ELm31ELm2567483615ELm11ELm4294967295ELm7ELm2636928640ELm15ELm4022730752ELm18ELm1812433253EEEEmRT_RKNS0_10param_typeE
FNF:2
FNH:2
DA:104,1
DA:106,1
DA:108,1
DA:112,1000000
DA:113,1000000
DA:116,500000
DA:117,500000
DA:142,1
DA:145,1
DA:203,500000
DA:204,500000
DA:257,500000
DA:269,500000
DA:270,500000
DA:271,500000
DA:273,0
DA:274,0
DA:276,0
DA:277,0
DA:280,500000
DA:287,500000
DA:295,500000
DA:296,500000
DA:299,500000
DA:301,500000
DA:302,500000
DA:305,500000
DA:309,500000
DA:327,500000
DA:328,500000
DA:342,0
DA:362,0
DA:363,0
DA:364,0
DA:365,0
DA:367,0
DA:370,0
DA:372,500000
LF:38
LH:27
end_of_record
TN:
SF:/usr/include/c++/14/ext/aligned_buffer.h
FNF:0
FNH:0
DA:65,10
DA:73,0
LF:2
LH:1
end_of_record
TN:
SF:/usr/include/c++/14/ext/alloc_traits.h
FNF:0
FNH:0
DA:97,55523072
DA:98,55523072
LF:2
LH:2
end_of_record
TN:
SF:/usr/include/c++/14/ext/string_conversions.h
FN:56,96,_ZN9__gnu_cxx6__stoaIlicJiEEET0_PFT_PKT1_PPS3_DpT2_EPKcS5_PmS9_
FNDA:7810000,_ZN9__gnu_cxx6__stoaIlicJiEEET0_PFT_PKT1_PPS3_DpT2_EPKcS5_PmS9_
FNF:1
FNH:1
DA:56,7810000
DA:65,7810000
DA:66,7810000
DA:68,7810000
DA:75,7810000
DA:78,7810000
DA:82,7810000
DA:84,7810000
DA:85,0
DA:86,7810000
DA:87,7810000
DA:88,0
DA:90,7810000
DA:92,7810000
DA:93,0
DA:95,7810000
DA:96,7810000
LF:17
LH:14
end_of_record
TN:
SF:/usr/include/c++/14/fstream
FNF:0
FNH:0
DA:275,5612
DA:276,5612
DA:680,4054
DA:681,4054
DA:952,1558
DA:953,1558
LF:6
LH:6
end_of_record
TN:
SF:/usr/include/c++/14/ostream
FNF:0
FNH:0
DA:116,93700074
DA:121,93700074
DA:668,145346393
DA:673,145346393
DA:674,145346393
LF:5
LH:5
end_of_record
TN:
SF:/usr/include/c++/14/tuple
FNF:0
FNH:0
DA:208,10
DA:209,10
DA:242,10
DA:556,10
DA:572,10
DA:573,10
DA:586,10
DA:588,10
DA:1487,10
DA:1489,10
DA:1503,10
DA:2427,10
DA:2428,10
DA:2443,10
DA:2444,10
DA:2650,10
DA:2651,10
DA:2872,10
DA:2877,10
DA:2884,10
DA:2887,10
DA:2888,10
LF:22
LH:22
end_of_record
