TN:
SF:/home/discorre/vscodeproj/thierdLaba/benchmark.cpp
FN:8,_Z14suppressOutputv
FN:12,_Z13restoreOutputv
FN:18,_ZL18BM_MyList_PushBackRN9benchmark5StateE
FN:28,_ZL14BM_MyList_FindRN9benchmark5StateE
FN:41,_ZL16BM_MyList_RemoveRN9benchmark5StateE
FN:56,_ZL16BM_MyArray_MpushRN9benchmark5StateE
FN:65,_ZL23BM_MyArray_MpushAtIndexRN9benchmark5StateE
FN:77,_ZL15BM_MyArray_MdelRN9benchmark5StateE
FN:90,_ZL15BM_MyArray_MgetRN9benchmark5StateE
FN:102,_ZL17BM_MyArray_MresetRN9benchmark5StateE
FN:118,_ZL17BM_HashMap_InsertRN9benchmark5StateE
FN:128,_ZL14BM_HashMap_GetRN9benchmark5StateE
FN:142,_ZL17BM_HashMap_DeleteRN9benchmark5StateE
FN:157,_ZL21BM_HashMap_SaveToFileRN9benchmark5StateE
FN:168,_ZL23BM_HashMap_LoadFromFileRN9benchmark5StateE
FN:183,main
FNDA:18,_ZL17BM_HashMap_InsertRN9benchmark5StateE
FNDA:29,_ZL15BM_MyArray_MdelRN9benchmark5StateE
FNDA:45,_ZL18BM_MyList_PushBackRN9benchmark5StateE
FNDA:19,_Z14suppressOutputv
FNDA:17,_ZL23BM_HashMap_LoadFromFileRN9benchmark5StateE
FNDA:24,_ZL16BM_MyList_RemoveRN9benchmark5StateE
FNDA:1,main
FNDA:15,_ZL21BM_HashMap_SaveToFileRN9benchmark5StateE
FNDA:19,_Z13restoreOutputv
FNDA:45,_ZL16BM_MyArray_MpushRN9benchmark5StateE
FNDA:19,_ZL17BM_HashMap_DeleteRN9benchmark5StateE
FNDA:46,_ZL15BM_MyArray_MgetRN9benchmark5StateE
FNDA:26,_ZL23BM_MyArray_MpushAtIndexRN9benchmark5StateE
FNDA:26,_ZL14BM_MyList_FindRN9benchmark5StateE
FNDA:18,_ZL14BM_HashMap_GetRN9benchmark5StateE
FNDA:45,_ZL17BM_MyArray_MresetRN9benchmark5StateE
FNF:16
FNH:16
DA:8,19
DA:9,19
DA:10,19
DA:12,19
DA:13,19
DA:14,19
DA:18,45
DA:19,45
DA:21,214804613
DA:22,214804433
DA:24,45
DA:25,45
DA:28,26
DA:29,26
DA:30,10876980
DA:31,5438464
DA:33,1514712
DA:35,757304
DA:37,26
DA:38,26
DA:41,24
DA:42,24
DA:43,8777776
DA:44,4388864
DA:46,179800
DA:47,89852
DA:48,179704
DA:50,24
DA:51,24
DA:56,45
DA:57,45
DA:58,444170295
DA:59,444170115
DA:61,45
DA:62,45
DA:65,26
DA:66,26
DA:67,11399220
DA:68,5699584
DA:70,134453
DA:71,268698
DA:73,26
DA:74,26
DA:77,29
DA:78,29
DA:79,11475002
DA:80,5737472
DA:82,1851342
DA:83,925613
DA:84,925613
DA:86,29
DA:87,29
DA:90,46
DA:91,46
DA:92,24799324
DA:93,12399616
DA:95,789108526
DA:96,394554171
DA:98,46
DA:99,46
DA:102,45
DA:103,45
DA:104,24275034
DA:105,12137472
DA:107,371598917
DA:108,743197474
DA:110,45
DA:111,45
DA:118,18
DA:119,429590
DA:120,429518
DA:121,17394124
DA:122,8267544
DA:125,18
DA:128,18
DA:129,18
DA:130,3476
DA:131,1720
DA:133,779439
DA:134,29048622
DA:135,13744944
DA:139,18
DA:142,19
DA:143,19
DA:144,19
DA:145,3990
DA:146,1976
DA:148,755900
DA:149,34311712
DA:150,16400032
DA:153,19
DA:154,19
DA:157,15
DA:158,15
DA:159,3310
DA:160,1640
DA:162,11342
DA:163,11282
DA:165,15
DA:168,17
DA:169,17
DA:170,3458
DA:171,1712
DA:173,17
DA:174,142558
DA:175,142490
DA:176,142490
DA:178,17
DA:183,1
LF:109
LH:109
end_of_record
TN:
SF:/home/discorre/vscodeproj/thierdLaba/myArray.hpp
FN:16,_ZN7MyArrayIiEC2Ei
FN:21,_ZN7MyArrayIiED2Ev
FN:26,_ZN7MyArrayIiE5MPUSHERKi
FN:34,_ZN7MyArrayIiE5MPUSHEiRKi
FN:50,_ZN7MyArrayIiE4MDELEi
FN:62,_ZN7MyArrayIiE4MGETEi
FN:78,_ZN7MyArrayIiE6MRESETEiRKi
FN:86,_ZN7MyArrayIiE6resizeEv
FNDA:394554171,_ZN7MyArrayIiE4MGETEi
FNDA:191,_ZN7MyArrayIiEC2Ei
FNDA:2215,_ZN7MyArrayIiE6resizeEv
FNDA:134349,_ZN7MyArrayIiE5MPUSHEiRKi
FNDA:481069872,_ZN7MyArrayIiE5MPUSHERKi
FNDA:191,_ZN7MyArrayIiED2Ev
FNDA:925613,_ZN7MyArrayIiE4MDELEi
FNDA:371598737,_ZN7MyArrayIiE6MRESETEiRKi
FNF:8
FNH:8
DA:16,191
DA:17,191
DA:18,191
DA:21,191
DA:22,191
DA:23,191
DA:26,481069872
DA:27,481069872
DA:28,2197
DA:30,481069872
DA:31,481069872
DA:34,134349
DA:35,134349
DA:36,0
DA:38,134349
DA:39,18
DA:42,3593948124
DA:43,3593813775
DA:45,134349
DA:46,134349
DA:47,134349
DA:50,925613
DA:51,925613
DA:52,0
DA:55,2137706496
DA:56,2136780883
DA:58,925613
DA:59,925613
DA:62,394554171
DA:63,394554171
DA:64,0
DA:66,394554171
DA:78,371598737
DA:79,371598737
DA:80,0
DA:82,371598737
DA:83,371598737
DA:86,2215
DA:87,2215
DA:88,2215
DA:89,608378805
DA:90,608376590
DA:92,2215
DA:93,2215
DA:94,2215
LF:45
LH:41
end_of_record
TN:
SF:/home/discorre/vscodeproj/thierdLaba/myHashMap.hpp
FN:11,_ZNK9MyHashMapINSt7__cxx1112basic_stringIcSt11char_traitsIcESaIcEEEiE4hashERKS5_
FN:21,_ZN9MyHashMapINSt7__cxx1112basic_stringIcSt11char_traitsIcESaIcEEEiEC2Ei
FN:26,_ZN9MyHashMapINSt7__cxx1112basic_stringIcSt11char_traitsIcESaIcEEEiED2Ev
FN:33,_ZN9MyHashMapINSt7__cxx1112basic_stringIcSt11char_traitsIcESaIcEEEiE4HGETERKS5_
FN:46,_ZN9MyHashMapINSt7__cxx1112basic_stringIcSt11char_traitsIcESaIcEEEiE4HSETERKS5_RKi
FN:56,_ZN9MyHashMapINSt7__cxx1112basic_stringIcSt11char_traitsIcESaIcEEEiE4HDELERKS5_
FN:75,_ZNK9MyHashMapINSt7__cxx1112basic_stringIcSt11char_traitsIcESaIcEEEiE10saveToFileERKS5_
FN:101,_ZN9MyHashMapINSt7__cxx1112basic_stringIcSt11char_traitsIcESaIcEEEiE12loadFromFileERKS5_
FN:119,_ZN9MyHashMapINSt7__cxx1112basic_stringIcSt11char_traitsIcESaIcEEEiE5clearEv
FNDA:13744944,_ZN9MyHashMapINSt7__cxx1112basic_stringIcSt11char_traitsIcESaIcEEEiE4HGETERKS5_
FNDA:16400032,_ZN9MyHashMapINSt7__cxx1112basic_stringIcSt11char_traitsIcESaIcEEEiE4HDELERKS5_
FNDA:11299,_ZNK9MyHashMapINSt7__cxx1112basic_stringIcSt11char_traitsIcESaIcEEEiE10saveToFileERKS5_
FNDA:56450336,_ZNK9MyHashMapINSt7__cxx1112basic_stringIcSt11char_traitsIcESaIcEEEiE4hashERKS5_
FNDA:13152680,_ZN9MyHashMapINSt7__cxx1112basic_stringIcSt11char_traitsIcESaIcEEEiE4HSETERKS5_RKi
FNDA:714567,_ZN9MyHashMapINSt7__cxx1112basic_stringIcSt11char_traitsIcESaIcEEEiE5clearEv
FNDA:142490,_ZN9MyHashMapINSt7__cxx1112basic_stringIcSt11char_traitsIcESaIcEEEiE12loadFromFileERKS5_
FNDA:1,_ZN9MyHashMapINSt7__cxx1112basic_stringIcSt11char_traitsIcESaIcEEEiEC2Ei
FNDA:1,_ZN9MyHashMapINSt7__cxx1112basic_stringIcSt11char_traitsIcESaIcEEEiED2Ev
FNF:9
FNH:9
DA:11,56450336
DA:12,56450336
DA:13,327944194
DA:14,271493858
DA:16,56450336
DA:21,1
DA:22,101
DA:23,1
DA:26,1
DA:27,101
DA:28,1
DA:33,13744944
DA:34,13744944
DA:35,13744944
DA:36,13744944
DA:40,0
DA:41,0
DA:46,13152680
DA:47,13152680
DA:48,13152680
DA:49,13152680
DA:51,0
DA:53,13152680
DA:56,16400032
DA:57,16400032
DA:58,16400032
DA:59,16400032
DA:60,1976
DA:63,16398056
DA:65,16400032
DA:75,11299
DA:76,11299
DA:77,11299
DA:78,0
DA:80,1141199
DA:82,1129900
DA:83,1129900
DA:84,525163
DA:88,1831513
DA:89,1226776
DA:91,1226776
DA:92,1226776
DA:96,11299
DA:97,11299
DA:101,142490
DA:102,142490
DA:103,142490
DA:104,0
DA:106,142490
DA:108,142490
DA:110,5020578
DA:111,4878088
DA:114,142490
DA:115,142490
DA:119,714567
DA:120,72171267
DA:121,71456700
DA:123,714567
LF:58
LH:53
end_of_record
TN:
SF:/home/discorre/vscodeproj/thierdLaba/myListKV.hpp
FN:13,_ZN6MyListINSt7__cxx1112basic_stringIcSt11char_traitsIcESaIcEEEiE4NodeC2ES5_i
FN:13,_ZN6MyListIiiE4NodeC2Eii
FN:22,_ZN6MyListIiiEC2Ev
FN:22,_ZN6MyListINSt7__cxx1112basic_stringIcSt11char_traitsIcESaIcEEEiEC2Ev
FN:25,_ZN6MyListIiiED2Ev
FN:25,_ZN6MyListINSt7__cxx1112basic_stringIcSt11char_traitsIcESaIcEEEiED2Ev
FN:30,_ZN6MyListIiiE9push_backERKiS2_
FN:30,_ZN6MyListINSt7__cxx1112basic_stringIcSt11char_traitsIcESaIcEEEiE9push_backERKS5_RKi
FN:43,_ZNK6MyListINSt7__cxx1112basic_stringIcSt11char_traitsIcESaIcEEEiE4findERKS5_Ri
FN:43,_ZNK6MyListIiiE4findERKiRi
FN:56,_ZNK6MyListINSt7__cxx1112basic_stringIcSt11char_traitsIcESaIcEEEiE6findAtEiRS5_Ri
FN:70,_ZN6MyListIiiE6removeERKi
FN:70,_ZN6MyListINSt7__cxx1112basic_stringIcSt11char_traitsIcESaIcEEEiE6removeERKS5_
FN:106,_ZNK6MyListINSt7__cxx1112basic_stringIcSt11char_traitsIcESaIcEEEiE4sizeEv
FN:111,_ZN6MyListINSt7__cxx1112basic_stringIcSt11char_traitsIcESaIcEEEiE5clearEv
FN:111,_ZN6MyListIiiE5clearEv
FNDA:100,_ZN6MyListINSt7__cxx1112basic_stringIcSt11char_traitsIcESaIcEEEiED2Ev
FNDA:757304,_ZNK6MyListIiiE4findERKiRi
FNDA:43297656,_ZNK6MyListINSt7__cxx1112basic_stringIcSt11char_traitsIcESaIcEEEiE4findERKS5_Ri
FNDA:13152680,_ZN6MyListINSt7__cxx1112basic_stringIcSt11char_traitsIcESaIcEEEiE9push_backERKS5_RKi
FNDA:100,_ZN6MyListINSt7__cxx1112basic_stringIcSt11char_traitsIcESaIcEEEiEC2Ev
FNDA:95,_ZN6MyListIiiEC2Ev
FNDA:95,_ZN6MyListIiiED2Ev
FNDA:95,_ZN6MyListIiiE5clearEv
FNDA:2961413,_ZNK6MyListINSt7__cxx1112basic_stringIcSt11char_traitsIcESaIcEEEiE4sizeEv
FNDA:13152680,_ZN6MyListINSt7__cxx1112basic_stringIcSt11char_traitsIcESaIcEEEiE4NodeC2ES5_i
FNDA:224721613,_ZN6MyListIiiE4NodeC2Eii
FNDA:89852,_ZN6MyListIiiE6removeERKi
FNDA:1976,_ZN6MyListINSt7__cxx1112basic_stringIcSt11char_traitsIcESaIcEEEiE6removeERKS5_
FNDA:224721613,_ZN6MyListIiiE9push_backERKiS2_
FNDA:1226776,_ZNK6MyListINSt7__cxx1112basic_stringIcSt11char_traitsIcESaIcEEEiE6findAtEiRS5_Ri
FNDA:71456800,_ZN6MyListINSt7__cxx1112basic_stringIcSt11char_traitsIcESaIcEEEiE5clearEv
FNF:16
FNH:16
DA:13,237874293
DA:22,195
DA:25,195
DA:26,195
DA:27,195
DA:30,237874293
DA:31,237874293
DA:32,237874293
DA:33,10063196
DA:36,227811097
DA:37,227811097
DA:39,237874293
DA:40,237874293
DA:43,44054960
DA:44,44054960
DA:45,1172141387
DA:46,1142590651
DA:47,14504224
DA:48,14504224
DA:50,1128086427
DA:52,29550736
DA:56,1226776
DA:57,1226776
DA:58,0
DA:60,1226776
DA:61,2318191
DA:62,1091415
DA:64,1226776
DA:65,1226776
DA:66,1226776
DA:70,91828
DA:71,91828
DA:72,91828
DA:74,1755674777
DA:75,1755584949
DA:76,2000
DA:77,24
DA:80,1976
DA:82,2000
DA:83,962
DA:85,2000
DA:86,2000
DA:87,2000
DA:89,1755582949
DA:90,1755582949
DA:92,89828
DA:106,2961413
DA:107,2961413
DA:111,71456895
DA:112,309329188
DA:113,237872293
DA:114,237872293
DA:115,237872293
DA:117,71456895
DA:118,71456895
DA:119,71456895
LF:56
LH:55
end_of_record
